(dp0
cnumpy.core.multiarray
scalar
p1
(cnumpy
dtype
p2
(S'i4'
p3
I0
I1
tp4
Rp5
(I3
S'<'
p6
NNNI-1
I-1
I0
tp7
bS'\x00\x00\x00\x00'
p8
tp9
Rp10
S'Avondale Barrel Aged Brett Saison'
p11
sg1
(g5
S'\x01\x00\x00\x00'
p12
tp13
Rp14
S'McFate Imperial Candy Bar Stout - Barrel Aged'
p15
sg1
(g5
S'\x02\x00\x00\x00'
p16
tp17
Rp18
S'Sockeye Double Dagger IIPA (Fresh Hop)'
p19
sg1
(g5
S'\x03\x00\x00\x00'
p20
tp21
Rp22
S'Good People El Gordo Imperial Stout'
p23
sg1
(g5
S'\x04\x00\x00\x00'
p24
tp25
Rp26
S'Straight To Ale Laika Russian Imperial Stout'
p27
sg1
(g5
S'\x05\x00\x00\x00'
p28
tp29
Rp30
S'Straight To Ale Laika Russian Imperial Stout - Bourbon Barrel Aged'
p31
sg1
(g5
S'\x06\x00\x00\x00'
p32
tp33
Rp34
S'Fairhope (Take The) Causeway IPA'
p35
sg1
(g5
S'\x07\x00\x00\x00'
p36
tp37
Rp38
S'Anchorage Anadromous Belgian Black Bier '
p39
sg1
(g5
S'\x08\x00\x00\x00'
p40
tp41
Rp42
S'Core Toasted Coconut Ale'
p43
sg1
(g5
S'\t\x00\x00\x00'
p44
tp45
Rp46
S'Port Brewing Older Viscosity'
p47
sg1
(g5
S'\n\x00\x00\x00'
p48
tp49
Rp50
S'Crooked Stave Raspberry Origins'
p51
sg1
(g5
S'\x0b\x00\x00\x00'
p52
tp53
Rp54
S'1809 Berliner Style Weisse Zymatore - Gin & Pinot Noir Barrels'
p55
sg1
(g5
S'\x0c\x00\x00\x00'
p56
tp57
Rp58
S'Iron Hill Sasquatch'
p59
sg1
(g5
S'\r\x00\x00\x00'
p60
tp61
Rp62
S'Funky Buddha Maple Bacon Coffee Porter'
p63
sg1
(g5
S'\x0e\x00\x00\x00'
p64
tp65
Rp66
S'Sweetwater Dank Tank Johnny Hash'
p67
sg1
(g5
S'\x0f\x00\x00\x00'
p68
tp69
Rp70
S'Big Island Red Giant Ale'
p71
sg1
(g5
S'\x10\x00\x00\x00'
p72
tp73
Rp74
S'Three Floyds Ronaldo (2016 Dark Lord Variant)'
p75
sg1
(g5
S'\x11\x00\x00\x00'
p76
tp77
Rp78
S'Three Floyds BrooDoo'
p79
sg1
(g5
S'\x12\x00\x00\x00'
p80
tp81
Rp82
S'Three Floyds Blakkr'
p83
sg1
(g5
S'\x13\x00\x00\x00'
p84
tp85
Rp86
S'18th Street Bitches\x8a\x97\xc8 Bank - Cognac Barrel Aged '
p87
sg1
(g5
S'\x14\x00\x00\x00'
p88
tp89
Rp90
S'Three Floyds French Vanilla Militia'
p91
sg1
(g5
S'\x15\x00\x00\x00'
p92
tp93
Rp94
S'Three Floyds Quit Hitting Yourself'
p95
sg1
(g5
S'\x16\x00\x00\x00'
p96
tp97
Rp98
S'Three Floyds Arctic Panzer Wolf'
p99
sg1
(g5
S'\x17\x00\x00\x00'
p100
tp101
Rp102
S'18th Street Barrel Aged Hunter - Wheat Whiskey'
p103
sg1
(g5
S'\x18\x00\x00\x00'
p104
tp105
Rp106
S'18th Street Bitches\x8a\x97\xc8 Bank'
p107
sg1
(g5
S'\x19\x00\x00\x00'
p108
tp109
Rp110
S'Three Floyds Alpha Klaus'
p111
sg1
(g5
S'\x1a\x00\x00\x00'
p112
tp113
Rp114
S'Three Floyds Behemoth - Bourbon Barrel'
p115
sg1
(g5
S'\x1b\x00\x00\x00'
p116
tp117
Rp118
S'Three Floyds / The Bruery Rue D\x8a\x97\xc8Floyd'
p119
sg1
(g5
S'\x1c\x00\x00\x00'
p120
tp121
Rp122
S'Three Floyds Rye Da Tiger'
p123
sg1
(g5
S'\x1d\x00\x00\x00'
p124
tp125
Rp126
S'Three Floyds Permanent Funeral'
p127
sg1
(g5
S'\x1e\x00\x00\x00'
p128
tp129
Rp130
S'Three Floyds Dark Lord Russian Imperial Stout (Aquavit Barrel Aged)'
p131
sg1
(g5
S'\x1f\x00\x00\x00'
p132
tp133
Rp134
S'Three Floyds Alpha King'
p135
sg1
(g5
S' \x00\x00\x00'
p136
tp137
Rp138
S'Three Floyds Bourbon Barrel Aged Dark Lord De Muerte'
p139
sg1
(g5
S'!\x00\x00\x00'
p140
tp141
Rp142
S'Three Floyds Baller Stout'
p143
sg1
(g5
S'"\x00\x00\x00'
p144
tp145
Rp146
S'Three Floyds Dark Lord Russian Imperial Stout (Cognac Coffee)'
p147
sg1
(g5
S'#\x00\x00\x00'
p148
tp149
Rp150
S'Three Floyds Behemoth'
p151
sg1
(g5
S'$\x00\x00\x00'
p152
tp153
Rp154
S'Three Floyds Zombie Dust'
p155
sg1
(g5
S'%\x00\x00\x00'
p156
tp157
Rp158
S'Three Floyds Dreadnaught Imperial IPA'
p159
sg1
(g5
S'&\x00\x00\x00'
p160
tp161
Rp162
S'Three Floyds Dark Lord Russian Imperial Stout'
p163
sg1
(g5
S"'\x00\x00\x00"
p164
tp165
Rp166
S'Three Floyds Dark Lord Russian Imperial Stout (Bourbon Barrel Aged)'
p167
sg1
(g5
S'(\x00\x00\x00'
p168
tp169
Rp170
S'Three Floyds Dark Lord Russian Imperial Stout (Bourbon Vanilla Bean)'
p171
sg1
(g5
S')\x00\x00\x00'
p172
tp173
Rp174
S'Grand Teton Wake Up Call Imperial Coffee Porter'
p175
sg1
(g5
S'*\x00\x00\x00'
p176
tp177
Rp178
S'Woodland Empire Beast Moans'
p179
sg1
(g5
S'+\x00\x00\x00'
p180
tp181
Rp182
S'Laughing Dog Hop Dog Harvest Pale Ale'
p183
sg1
(g5
S',\x00\x00\x00'
p184
tp185
Rp186
S'Sockeye Big Creek Trappist'
p187
sg1
(g5
S'-\x00\x00\x00'
p188
tp189
Rp190
S'Barbarian Big Bad Funky Wolf '
p191
sg1
(g5
S'.\x00\x00\x00'
p192
tp193
Rp194
S'Grand Teton Pursuit of Hoppiness'
p195
sg1
(g5
S'/\x00\x00\x00'
p196
tp197
Rp198
S'Grand Teton Trout Hop Black IPA'
p199
sg1
(g5
S'0\x00\x00\x00'
p200
tp201
Rp202
S'Selkirk Abbey Infidel'
p203
sg1
(g5
S'1\x00\x00\x00'
p204
tp205
Rp206
S'Laughing Dog Anubis Imperial Coffee Porter'
p207
sg1
(g5
S'2\x00\x00\x00'
p208
tp209
Rp210
S'Laughing Dog Sneaky Pete Imperial IPA'
p211
sg1
(g5
S'3\x00\x00\x00'
p212
tp213
Rp214
S'Sockeye Dagger Falls IPA'
p215
sg1
(g5
S'4\x00\x00\x00'
p216
tp217
Rp218
S'Grand Teton 5 O\x8a\x97\xc8Clock Shadow'
p219
sg1
(g5
S'5\x00\x00\x00'
p220
tp221
Rp222
S'Woodland Empire Cozy Up Big Ol\x8a\x97\xc8 Milk Stout'
p223
sg1
(g5
S'6\x00\x00\x00'
p224
tp225
Rp226
S'Laughing Dog Devil Dog Imperial IPA'
p227
sg1
(g5
S'7\x00\x00\x00'
p228
tp229
Rp230
S'Sockeye Hopnoxious Imperial IPA'
p231
sg1
(g5
S'8\x00\x00\x00'
p232
tp233
Rp234
S'Grand Teton Sheep Eater Scotch Ale'
p235
sg1
(g5
S'9\x00\x00\x00'
p236
tp237
Rp238
S'Payette 12 Gauge Imperial Stout'
p239
sg1
(g5
S':\x00\x00\x00'
p240
tp241
Rp242
S'Grand Teton Brewers Series No. 2 - Brett Saison'
p243
sg1
(g5
S';\x00\x00\x00'
p244
tp245
Rp246
S'Laughing Dog The Dogfather Imperial Stout - Bourbon Barrel'
p247
sg1
(g5
S'<\x00\x00\x00'
p248
tp249
Rp250
S'Payette 12 Gauge Imperial Stout - Barrel Aged'
p251
sg1
(g5
S'=\x00\x00\x00'
p252
tp253
Rp254
S'Big Horn Tres Amigos Tequila Aged Imperial IPA'
p255
sg1
(g5
S'>\x00\x00\x00'
p256
tp257
Rp258
S'Grand Teton Black Cauldron Imperial Stout'
p259
sg1
(g5
S'?\x00\x00\x00'
p260
tp261
Rp262
S'Grand Teton Double Vision Doppelbock'
p263
sg1
(g5
S'@\x00\x00\x00'
p264
tp265
Rp266
S'Sockeye Barrel Aged Seven Devils Imperial Stout'
p267
sg1
(g5
S'A\x00\x00\x00'
p268
tp269
Rp270
S'Maui Brewing Aloha B\x8a\x97\xc8ak\x8a\x97\xc8tun'
p271
sg1
(g5
S'B\x00\x00\x00'
p272
tp273
Rp274
S'Maui Brewing Cascadian Dark Belgian Rye IPA'
p275
sg1
(g5
S'C\x00\x00\x00'
p276
tp277
Rp278
S'Maui Brewing Hop Kine'
p279
sg1
(g5
S'D\x00\x00\x00'
p280
tp281
Rp282
S'Honolulu Beerworks South Shore Stout '
p283
sg1
(g5
S'E\x00\x00\x00'
p284
tp285
Rp286
S'Kona Bourbon Barrel Aged Black Sand Porter'
p287
sg1
(g5
S'F\x00\x00\x00'
p288
tp289
Rp290
S'Maui Brewing KGB Woody'
p291
sg1
(g5
S'G\x00\x00\x00'
p292
tp293
Rp294
S'Kauai Island Captain Cook\x8a\x97\xc8s IPA'
p295
sg1
(g5
S'H\x00\x00\x00'
p296
tp297
Rp298
S'Big Island / Caldera Red Sea Imperial Red Gose'
p299
sg1
(g5
S'I\x00\x00\x00'
p300
tp301
Rp302
S'Kona Black Sand Porter'
p303
sg1
(g5
S'J\x00\x00\x00'
p304
tp305
Rp306
S'Big Island Golden Sabbath'
p307
sg1
(g5
S'K\x00\x00\x00'
p308
tp309
Rp310
S'Maui Brewing Heaven & Hell Barleywine'
p311
sg1
(g5
S'L\x00\x00\x00'
p312
tp313
Rp314
S'Big Island White Mountain Porter'
p315
sg1
(g5
S'M\x00\x00\x00'
p316
tp317
Rp318
S'Maui Brewing Lorenzini Double IPA (6th Sense)'
p319
sg1
(g5
S'N\x00\x00\x00'
p320
tp321
Rp322
S'Big Island Holy Humulus '
p323
sg1
(g5
S'O\x00\x00\x00'
p324
tp325
Rp326
S'Kona Pipeline Porter'
p327
sg1
(g5
S'P\x00\x00\x00'
p328
tp329
Rp330
S'Maui Brewing Freight Trains IPA'
p331
sg1
(g5
S'Q\x00\x00\x00'
p332
tp333
Rp334
S'Maui Brewing Shipwreck Stout'
p335
sg1
(g5
S'R\x00\x00\x00'
p336
tp337
Rp338
S'Maui Brewing Big Swell IPA'
p339
sg1
(g5
S'S\x00\x00\x00'
p340
tp341
Rp342
S'Big Island Overboard IPA'
p343
sg1
(g5
S'T\x00\x00\x00'
p344
tp345
Rp346
S'Maui Brewing Double Overhead IPA'
p347
sg1
(g5
S'U\x00\x00\x00'
p348
tp349
Rp350
S'Wrecking Bar Choco Mountain Imperial Breakfast Stout'
p351
sg1
(g5
S'V\x00\x00\x00'
p352
tp353
Rp354
S'Maui Brewing Coconut Hiwa Porter'
p355
sg1
(g5
S'W\x00\x00\x00'
p356
tp357
Rp358
S'Kona Old Blowhole Barley Wine'
p359
sg1
(g5
S'X\x00\x00\x00'
p360
tp361
Rp362
S'Maui Brewing Imperial CoCoNut PorTeR'
p363
sg1
(g5
S'Y\x00\x00\x00'
p364
tp365
Rp366
S'Kona Da Grind Buzz Kona Coffee Imperial Stout'
p367
sg1
(g5
S'Z\x00\x00\x00'
p368
tp369
Rp370
S'Terrapin Rye Squared'
p371
sg1
(g5
S'[\x00\x00\x00'
p372
tp373
Rp374
S'Red Brick 20th Anniversary '
p375
sg1
(g5
S'\\\x00\x00\x00'
p376
tp377
Rp378
S'Wrecking Bar Jemmy American Stout'
p379
sg1
(g5
S']\x00\x00\x00'
p380
tp381
Rp382
S'Terrapin Side Project Hopzilla Double IPA'
p383
sg1
(g5
S'^\x00\x00\x00'
p384
tp385
Rp386
S'Terrapin Tiramisu-Hoo'
p387
sg1
(g5
S'_\x00\x00\x00'
p388
tp389
Rp390
S'Wrecking Bar Jemmy Dean Breakfast Stout'
p391
sg1
(g5
S'`\x00\x00\x00'
p392
tp393
Rp394
S'5 Seasons North Plan B IPA'
p395
sg1
(g5
S'a\x00\x00\x00'
p396
tp397
Rp398
S'Wrecking Bar Siberius Maximus Russian Imperial Stout'
p399
sg1
(g5
S'b\x00\x00\x00'
p400
tp401
Rp402
S'Terrapin Big Hoppy Monster'
p403
sg1
(g5
S'c\x00\x00\x00'
p404
tp405
Rp406
S'Sweetwater Dank Tank Some Strange'
p407
sg1
(g5
S'd\x00\x00\x00'
p408
tp409
Rp410
S'Burnt Hickory Charred Walls of the Damned'
p411
sg1
(g5
S'e\x00\x00\x00'
p412
tp413
Rp414
S'Terrapin French Toasted W-n-B Coffee Oatmeal Imperial Stout'
p415
sg1
(g5
S'f\x00\x00\x00'
p416
tp417
Rp418
S'Creature Comforts Cosmik Debris'
p419
sg1
(g5
S'g\x00\x00\x00'
p420
tp421
Rp422
S'Sweetwater Bourbon Barrel Aged Imperial Stout'
p423
sg1
(g5
S'h\x00\x00\x00'
p424
tp425
Rp426
S'Creature Comforts See The Stars'
p427
sg1
(g5
S'i\x00\x00\x00'
p428
tp429
Rp430
S'Terrapin Oaked Aged Rye Squared'
p431
sg1
(g5
S'j\x00\x00\x00'
p432
tp433
Rp434
S'Terrapin Cinnamon Roll\x8a\x97\xc8d Wake-n-Bake'
p435
sg1
(g5
S'k\x00\x00\x00'
p436
tp437
Rp438
S'Terrapin Wake-n-Bake Coffee Oatmeal Imperial Stout'
p439
sg1
(g5
S'l\x00\x00\x00'
p440
tp441
Rp442
S'5 Seasons North Quinte55ence'
p443
sg1
(g5
S'm\x00\x00\x00'
p444
tp445
Rp446
S'Terrapin Substance Abuse Ale'
p447
sg1
(g5
S'n\x00\x00\x00'
p448
tp449
Rp450
S'Terrapin Oaked Wake-n-Bake Coffee Oatmeal Imperial Stout'
p451
sg1
(g5
S'o\x00\x00\x00'
p452
tp453
Rp454
S'Wrecking Bar Mexican Siberius Maximus Russian Imperial Stout'
p455
sg1
(g5
S'p\x00\x00\x00'
p456
tp457
Rp458
S'Funky Buddha Last Snow Porter'
p459
sg1
(g5
S'q\x00\x00\x00'
p460
tp461
Rp462
S'Cigar City Cognac Barrel-Aged Imperial Sweet Stout'
p463
sg1
(g5
S'r\x00\x00\x00'
p464
tp465
Rp466
S'Cycle Wednesday - 2016'
p467
sg1
(g5
S's\x00\x00\x00'
p468
tp469
Rp470
S'Cigar City Marshal Zhukov\x8a\x97\xc8s Imperial Stout - Bourbon Barrel'
p471
sg1
(g5
S't\x00\x00\x00'
p472
tp473
Rp474
S'Cigar City Marshal Zhukov\x8a\x97\xc8s Penultimate Push'
p475
sg1
(g5
S'u\x00\x00\x00'
p476
tp477
Rp478
S'Cigar City / Mikkeller Nielsbohrium'
p479
sg1
(g5
S'v\x00\x00\x00'
p480
tp481
Rp482
S'Creature Comforts Tropic\x92\x8dlia'
p483
sg1
(g5
S'w\x00\x00\x00'
p484
tp485
Rp486
S'Cycle Pallet 2'
p487
sg1
(g5
S'x\x00\x00\x00'
p488
tp489
Rp490
S'Cycle &+'
p491
sg1
(g5
S'y\x00\x00\x00'
p492
tp493
Rp494
S'Cigar City Marshal Zhukov\x8a\x97\xc8s Imperial Stout'
p495
sg1
(g5
S'z\x00\x00\x00'
p496
tp497
Rp498
S'Cycle RareR DOS'
p499
sg1
(g5
S'{\x00\x00\x00'
p500
tp501
Rp502
S'Cigar City Caff\x92\xe5 Americano Double Stout'
p503
sg1
(g5
S'|\x00\x00\x00'
p504
tp505
Rp506
S'J. Wakefield Miami Madness'
p507
sg1
(g5
S'}\x00\x00\x00'
p508
tp509
Rp510
S'Cycle Nooner #9'
p511
sg1
(g5
S'~\x00\x00\x00'
p512
tp513
Rp514
S'Funky Buddha Wide Awake It\x8a\x97\xc8s Morning'
p515
sg1
(g5
S'\x7f\x00\x00\x00'
p516
tp517
Rp518
S'Funky Buddha Morning Wood'
p519
sg1
(g5
S'\x80\x00\x00\x00'
p520
tp521
Rp522
S'Cycle Nooner #8'
p523
sg1
(g5
S'\x81\x00\x00\x00'
p524
tp525
Rp526
S'Funky Buddha Last Buffalo in the Park'
p527
sg1
(g5
S'\x82\x00\x00\x00'
p528
tp529
Rp530
S'J. Wakefield Dragonfruit Passion Fruit (DFPF) Berliner Weisse'
p531
sg1
(g5
S'\x83\x00\x00\x00'
p532
tp533
Rp534
S'Funky Buddha Snowed In - Bourbon Barrel'
p535
sg1
(g5
S'\x84\x00\x00\x00'
p536
tp537
Rp538
S'Cycle Four Roses BA Rye Stout'
p539
sg1
(g5
S'\x85\x00\x00\x00'
p540
tp541
Rp542
S'Cycle Barrel-Aged Hazelnut Imperial Stout'
p543
sg1
(g5
S'\x86\x00\x00\x00'
p544
tp545
Rp546
S'Cycle / 3 Sons Rare Scooop'
p547
sg1
(g5
S'\x87\x00\x00\x00'
p548
tp549
Rp550
S'Cigar City Hunahpu\x8a\x97\xc8s Imperial Stout'
p551
sg1
(g5
S'\x88\x00\x00\x00'
p552
tp553
Rp554
S'Cigar City Hunahpu\x8a\x97\xc8s Imperial Stout - Double Barrel Aged'
p555
sg1
(g5
S'\x89\x00\x00\x00'
p556
tp557
Rp558
S'Dominion Millennium'
p559
sg1
(g5
S'\x8a\x00\x00\x00'
p560
tp561
Rp562
S'Dogfish Head Beer for Breakfast'
p563
sg1
(g5
S'\x8b\x00\x00\x00'
p564
tp565
Rp566
S'Iron Hill Bourbon Porter'
p567
sg1
(g5
S'\x8c\x00\x00\x00'
p568
tp569
Rp570
S'Iron Hill Imperial IPA'
p571
sg1
(g5
S'\x8d\x00\x00\x00'
p572
tp573
Rp574
S'Dogfish Head URKontinent'
p575
sg1
(g5
S'\x8e\x00\x00\x00'
p576
tp577
Rp578
S'Dogfish Head Indian Brown Ale'
p579
sg1
(g5
S'\x8f\x00\x00\x00'
p580
tp581
Rp582
S'Iron Hill Quadrupel (Quadfather)'
p583
sg1
(g5
S'\x90\x00\x00\x00'
p584
tp585
Rp586
S'Dogfish Head Olde School Barleywine'
p587
sg1
(g5
S'\x91\x00\x00\x00'
p588
tp589
Rp590
S'Dogfish Head 60 Minute IPA'
p591
sg1
(g5
S'\x92\x00\x00\x00'
p592
tp593
Rp594
S'Iron Hill Bourbon (Tom) Barleywine'
p595
sg1
(g5
S'\x93\x00\x00\x00'
p596
tp597
Rp598
S'Dogfish Head Raison D Extra'
p599
sg1
(g5
S'\x94\x00\x00\x00'
p600
tp601
Rp602
S'Dogfish Head Immort Ale'
p603
sg1
(g5
S'\x95\x00\x00\x00'
p604
tp605
Rp606
S'Dogfish Head 75 Minute IPA (Cask/Bottle)'
p607
sg1
(g5
S'\x96\x00\x00\x00'
p608
tp609
Rp610
S'Dogfish Head Burton Baton'
p611
sg1
(g5
S'\x97\x00\x00\x00'
p612
tp613
Rp614
S'Dogfish Head Squall IPA'
p615
sg1
(g5
S'\x98\x00\x00\x00'
p616
tp617
Rp618
S'Dogfish Head 120 Minute IPA'
p619
sg1
(g5
S'\x99\x00\x00\x00'
p620
tp621
Rp622
S'New England Locust Reign'
p623
sg1
(g5
S'\x9a\x00\x00\x00'
p624
tp625
Rp626
S'Iron Hill Oak Aged Quad'
p627
sg1
(g5
S'\x9b\x00\x00\x00'
p628
tp629
Rp630
S'Dominion Millennium Oak Aged'
p631
sg1
(g5
S'\x9c\x00\x00\x00'
p632
tp633
Rp634
S'Dogfish Head Palo Santo Marron'
p635
sg1
(g5
S'\x9d\x00\x00\x00'
p636
tp637
Rp638
S'Iron Hill Russian Imperial Stout'
p639
sg1
(g5
S'\x9e\x00\x00\x00'
p640
tp641
Rp642
S'Dogfish Head Bitches Brew'
p643
sg1
(g5
S'\x9f\x00\x00\x00'
p644
tp645
Rp646
S'Iron Hill Oak Aged Old Tom'
p647
sg1
(g5
S'\xa0\x00\x00\x00'
p648
tp649
Rp650
S'Dogfish Head 90 Minute Imperial IPA'
p651
sg1
(g5
S'\xa1\x00\x00\x00'
p652
tp653
Rp654
S'Dogfish Head World Wide Stout 2001/2003-Present (18%)'
p655
sg1
(g5
S'\xa2\x00\x00\x00'
p656
tp657
Rp658
S'OEC Aeris Singularis (Pinot Noir/Gin Barrel)'
p659
sg1
(g5
S'\xa3\x00\x00\x00'
p660
tp661
Rp662
S'OEC Experimentalis with Peaches (Pedro Ximenez Barrel)'
p663
sg1
(g5
S'\xa4\x00\x00\x00'
p664
tp665
Rp666
S'OEC Exilis'
p667
sg1
(g5
S'\xa5\x00\x00\x00'
p668
tp669
Rp670
S'OEC Aeris'
p671
sg1
(g5
S'\xa6\x00\x00\x00'
p672
tp673
Rp674
S'Two Roads Unorthodox'
p675
sg1
(g5
S'\xa7\x00\x00\x00'
p676
tp677
Rp678
S'Thomas Hooker Imperial Porter'
p679
sg1
(g5
S'\xa8\x00\x00\x00'
p680
tp681
Rp682
S'Willimantic Address Unknown IPA'
p683
sg1
(g5
S'\xa9\x00\x00\x00'
p684
tp685
Rp686
S'OEC Nepenthes'
p687
sg1
(g5
S'\xaa\x00\x00\x00'
p688
tp689
Rp690
S'New England Imperial Stout Trooper (Bourbon)'
p691
sg1
(g5
S'\xab\x00\x00\x00'
p692
tp693
Rp694
S'OEC Artista Zynergia: Gosatequin (Blend #1)'
p695
sg1
(g5
S'\xac\x00\x00\x00'
p696
tp697
Rp698
S'Two Roads Igor\x8a\x97\xc8s Dream - Rye Whiskey Barrel Aged'
p699
sg1
(g5
S'\xad\x00\x00\x00'
p700
tp701
Rp702
S'New England 668 Chardonneighbor Of The Beast '
p703
sg1
(g5
S'\xae\x00\x00\x00'
p704
tp705
Rp706
S'OEC Albus'
p707
sg1
(g5
S'\xaf\x00\x00\x00'
p708
tp709
Rp710
S'New England Galaxy Pale Ale'
p711
sg1
(g5
S'\xb0\x00\x00\x00'
p712
tp713
Rp714
S'Thomas Hooker Liberator Doppelbock'
p715
sg1
(g5
S'\xb1\x00\x00\x00'
p716
tp717
Rp718
S'OEC Artista Zynergia: Oudilis'
p719
sg1
(g5
S'\xb2\x00\x00\x00'
p720
tp721
Rp722
S'Willimantic Willi Whammer'
p723
sg1
(g5
S'\xb3\x00\x00\x00'
p724
tp725
Rp726
S'New England G-Bot Double IPA'
p727
sg1
(g5
S'\xb4\x00\x00\x00'
p728
tp729
Rp730
S'OEC Experimentalis With Meyer Lemons (Pinot Noir/Gin Barrel)'
p731
sg1
(g5
S'\xb5\x00\x00\x00'
p732
tp733
Rp734
S'New England Supernaut IPA'
p735
sg1
(g5
S'\xb6\x00\x00\x00'
p736
tp737
Rp738
S'New England Imperial Stout Trooper'
p739
sg1
(g5
S'\xb7\x00\x00\x00'
p740
tp741
Rp742
S'New England Fuzzy Baby Ducks IPA '
p743
sg1
(g5
S'\xb8\x00\x00\x00'
p744
tp745
Rp746
S'New England Coriolis'
p747
sg1
(g5
S'\xb9\x00\x00\x00'
p748
tp749
Rp750
S'Casey Dry Hopped Oak Theory - Galaxy & Simcoe'
p751
sg1
(g5
S'\xba\x00\x00\x00'
p752
tp753
Rp754
S'Crooked Stave Silly Cybies'
p755
sg1
(g5
S'\xbb\x00\x00\x00'
p756
tp757
Rp758
S'WeldWerks Coffee Maple Achromatic'
p759
sg1
(g5
S'\xbc\x00\x00\x00'
p760
tp761
Rp762
S'Great Divide Hercules Double IPA'
p763
sg1
(g5
S'\xbd\x00\x00\x00'
p764
tp765
Rp766
S'Avery The Maharaja Imperial India Pale Ale'
p767
sg1
(g5
S'\xbe\x00\x00\x00'
p768
tp769
Rp770
S'New Belgium Love - Felix-Oscar Blend - Blackberry Whiskey Barrel'
p771
sg1
(g5
S'\xbf\x00\x00\x00'
p772
tp773
Rp774
S'New Belgium La Folie'
p775
sg1
(g5
S'\xc0\x00\x00\x00'
p776
tp777
Rp778
S'Avery Mephistopheles Stout'
p779
sg1
(g5
S'\xc1\x00\x00\x00'
p780
tp781
Rp782
S'Casey Brett Loves Citra'
p783
sg1
(g5
S'\xc2\x00\x00\x00'
p784
tp785
Rp786
S'Medovina Sweet Melissa'
p787
sg1
(g5
S'\xc3\x00\x00\x00'
p788
tp789
Rp790
S'Great Divide Yeti Imperial Stout - Chocolate Oak Aged '
p791
sg1
(g5
S'\xc4\x00\x00\x00'
p792
tp793
Rp794
S'Avery Tweak'
p795
sg1
(g5
S'\xc5\x00\x00\x00'
p796
tp797
Rp798
S'Crooked Stave Petite Sour Hibiscus & Cinnamon (Apple/Peach Whiskey)'
p799
sg1
(g5
S'\xc6\x00\x00\x00'
p800
tp801
Rp802
S'Casey The Cut: Balaton Cherry'
p803
sg1
(g5
S'\xc7\x00\x00\x00'
p804
tp805
Rp806
S'Great Divide Yeti Imperial Stout - Barrel Aged'
p807
sg1
(g5
S'\xc8\x00\x00\x00'
p808
tp809
Rp810
S'Crooked Stave Nightmare on Brett (Raspberry)'
p811
sg1
(g5
S'\xc9\x00\x00\x00'
p812
tp813
Rp814
S'Oskar Blues Ten FIDY - Stranahan\x8a\x97\xc8s Colorado Whiskey Barrel'
p815
sg1
(g5
S'\xca\x00\x00\x00'
p816
tp817
Rp818
S'Great Divide Yeti Imperial Stout'
p819
sg1
(g5
S'\xcb\x00\x00\x00'
p820
tp821
Rp822
S'Oskar Blues Ten FIDY - Barrel Aged'
p823
sg1
(g5
S'\xcc\x00\x00\x00'
p824
tp825
Rp826
S'Avery Barrel-Aged Series 36 - Callipygian'
p827
sg1
(g5
S'\xcd\x00\x00\x00'
p828
tp829
Rp830
S'Oskar Blues Ten FIDY'
p831
sg1
(g5
S'\xce\x00\x00\x00'
p832
tp833
Rp834
S'Great Divide Yeti Imperial Stout - Espresso Oak Aged '
p835
sg1
(g5
S'\xcf\x00\x00\x00'
p836
tp837
Rp838
S'Avery Uncle Jacob\x8a\x97\xc8s Stout'
p839
sg1
(g5
S'\xd0\x00\x00\x00'
p840
tp841
Rp842
S'Great Divide Yeti Imperial Stout - Oak Aged '
p843
sg1
(g5
S'\xd1\x00\x00\x00'
p844
tp845
Rp846
S'North Coast Old Rasputin (Bourbon Barrel)'
p847
sg1
(g5
S'\xd2\x00\x00\x00'
p848
tp849
Rp850
S'Lost Abbey The Angels Share - Bourbon Barrel'
p851
sg1
(g5
S'\xd3\x00\x00\x00'
p852
tp853
Rp854
S'Russian River Beatification (Batch 002 +)'
p855
sg1
(g5
S'\xd4\x00\x00\x00'
p856
tp857
Rp858
S'Russian River Consecration'
p859
sg1
(g5
S'\xd5\x00\x00\x00'
p860
tp861
Rp862
S'Lost Abbey Duck Duck Gooze '
p863
sg1
(g5
S'\xd6\x00\x00\x00'
p864
tp865
Rp866
S'AleSmith Speedway Stout - Vanilla & Coconut'
p867
sg1
(g5
S'\xd7\x00\x00\x00'
p868
tp869
Rp870
S'Lost Abbey Box Set: Track #10 (Bat out of Hell)'
p871
sg1
(g5
S'\xd8\x00\x00\x00'
p872
tp873
Rp874
S'Lost Abbey Box Set: Track #6 (Highway to Hell)'
p875
sg1
(g5
S'\xd9\x00\x00\x00'
p876
tp877
Rp878
S'Hangar 24 Barrel Roll: Pugachev Royale'
p879
sg1
(g5
S'\xda\x00\x00\x00'
p880
tp881
Rp882
S'Stone Imperial Russian Stout'
p883
sg1
(g5
S'\xdb\x00\x00\x00'
p884
tp885
Rp886
S'Russian River Supplication'
p887
sg1
(g5
S'\xdc\x00\x00\x00'
p888
tp889
Rp890
S'Stone Imperial Russian Stout - Bourbon Barrel'
p891
sg1
(g5
S'\xdd\x00\x00\x00'
p892
tp893
Rp894
S'Vinos Octoberfest'
p895
sg1
(g5
S'\xde\x00\x00\x00'
p896
tp897
Rp898
S'Fossil Cove La Brea Brown'
p899
sg1
(g5
S'\xdf\x00\x00\x00'
p900
tp901
Rp902
S'Firestone Walker Parabola'
p903
sg1
(g5
S'\xe0\x00\x00\x00'
p904
tp905
Rp906
S'Lost Abbey Cable Car'
p907
sg1
(g5
S'\xe1\x00\x00\x00'
p908
tp909
Rp910
S'AleSmith Speedway Stout - Vietnamese Coffee'
p911
sg1
(g5
S'\xe2\x00\x00\x00'
p912
tp913
Rp914
S'AleSmith Speedway Stout - Brewer\x8a\x97\xc8s Blend: Vietnamese Coffee'
p915
sg1
(g5
S'\xe3\x00\x00\x00'
p916
tp917
Rp918
S'Alpine Beer Company Keene Idea'
p919
sg1
(g5
S'\xe4\x00\x00\x00'
p920
tp921
Rp922
S'AleSmith Speedway Stout - Velvet'
p923
sg1
(g5
S'\xe5\x00\x00\x00'
p924
tp925
Rp926
S'AleSmith Speedway Stout - Hawaiian'
p927
sg1
(g5
S'\xe6\x00\x00\x00'
p928
tp929
Rp930
S'Russian River Pliny the Elder'
p931
sg1
(g5
S'\xe7\x00\x00\x00'
p932
tp933
Rp934
S'AleSmith Speedway Stout'
p935
sg1
(g5
S'\xe8\x00\x00\x00'
p936
tp937
Rp938
S'AleSmith Speedway Stout - Bourbon Barrel Aged'
p939
sg1
(g5
S'\xe9\x00\x00\x00'
p940
tp941
Rp942
S'Russian River Pliny the Younger'
p943
sg1
(g5
S'\xea\x00\x00\x00'
p944
tp945
Rp946
S'AleSmith Speedway Stout - Bourbon Barrel Aged: Vietnamese Coffee'
p947
sg1
(g5
S'\xeb\x00\x00\x00'
p948
tp949
Rp950
S'Vinos Rainbow Wheat'
p951
sg1
(g5
S'\xec\x00\x00\x00'
p952
tp953
Rp954
S'Diamond Bear Presidential IPA'
p955
sg1
(g5
S'\xed\x00\x00\x00'
p956
tp957
Rp958
S'Core Hilltop IPA'
p959
sg1
(g5
S'\xee\x00\x00\x00'
p960
tp961
Rp962
S'Diamond Bear Strawberry Blonde'
p963
sg1
(g5
S'\xef\x00\x00\x00'
p964
tp965
Rp966
S'Core Easy Livin\x8a\x97\xc8 IPA'
p967
sg1
(g5
S'\xf0\x00\x00\x00'
p968
tp969
Rp970
S'Moody Brews Half Seas Over Imperial IPA'
p971
sg1
(g5
S'\xf1\x00\x00\x00'
p972
tp973
Rp974
S'Diamond Bear Dogtown Brown'
p975
sg1
(g5
S'\xf2\x00\x00\x00'
p976
tp977
Rp978
S'Diamond Bear Two Term Double IPA'
p979
sg1
(g5
S'\xf3\x00\x00\x00'
p980
tp981
Rp982
S'Vinos Lazyboy Stout'
p983
sg1
(g5
S'\xf4\x00\x00\x00'
p984
tp985
Rp986
S'Diamond Bear Paradise Porter'
p987
sg1
(g5
S'\xf5\x00\x00\x00'
p988
tp989
Rp990
S'Vinos Holidaze'
p991
sg1
(g5
S'\xf6\x00\x00\x00'
p992
tp993
Rp994
S'Vinos Pinnacle IPA'
p995
sg1
(g5
S'\xf7\x00\x00\x00'
p996
tp997
Rp998
S'Core Barney\x8a\x97\xc8s Imperial Red'
p999
sg1
(g5
S'\xf8\x00\x00\x00'
p1000
tp1001
Rp1002
S'Ozark Cream Stout'
p1003
sg1
(g5
S'\xf9\x00\x00\x00'
p1004
tp1005
Rp1006
S'Core ESB'
p1007
sg1
(g5
S'\xfa\x00\x00\x00'
p1008
tp1009
Rp1010
S'Lost Forty Pale Ale'
p1011
sg1
(g5
S'\xfb\x00\x00\x00'
p1012
tp1013
Rp1014
S'Vinos Imperial Stout'
p1015
sg1
(g5
S'\xfc\x00\x00\x00'
p1016
tp1017
Rp1018
S'Core Oatmeal Stout'
p1019
sg1
(g5
S'\xfd\x00\x00\x00'
p1020
tp1021
Rp1022
S'Ozark Onyx Coffee Stout'
p1023
sg1
(g5
S'\xfe\x00\x00\x00'
p1024
tp1025
Rp1026
S'Vinos Rock Hopera Imperial IPA'
p1027
sg1
(g5
S'\xff\x00\x00\x00'
p1028
tp1029
Rp1030
S'Ozark American Pale Ale'
p1031
sg1
(g5
S'\x00\x01\x00\x00'
p1032
tp1033
Rp1034
S'Ozark Bourbon Barrel Aged Double Cream Stout'
p1035
sg1
(g5
S'\x01\x01\x00\x00'
p1036
tp1037
Rp1038
S'Thunder Canyon Warhead Stout'
p1039
sg1
(g5
S'\x02\x01\x00\x00'
p1040
tp1041
Rp1042
S'Four Peaks Double Knot'
p1043
sg1
(g5
S'\x03\x01\x00\x00'
p1044
tp1045
Rp1046
S'Superstition Marion Mead - Sparkling'
p1047
sg1
(g5
S'\x04\x01\x00\x00'
p1048
tp1049
Rp1050
S'Superstition Fruit of Venus'
p1051
sg1
(g5
S'\x05\x01\x00\x00'
p1052
tp1053
Rp1054
S'Superstition Date Night'
p1055
sg1
(g5
S'\x06\x01\x00\x00'
p1056
tp1057
Rp1058
S'Superstition Aphrodisia Pyment - Syrah/Grenache'
p1059
sg1
(g5
S'\x07\x01\x00\x00'
p1060
tp1061
Rp1062
S'Superstition Aphrodisia Pyment - Cabernet/Syrah'
p1063
sg1
(g5
S'\x08\x01\x00\x00'
p1064
tp1065
Rp1066
S'Superstition Aphrodisia Pyment - Cabernet/Pinot Noir/Syrah'
p1067
sg1
(g5
S'\t\x01\x00\x00'
p1068
tp1069
Rp1070
S'Superstition Marion Mead - Still'
p1071
sg1
(g5
S'\n\x01\x00\x00'
p1072
tp1073
Rp1074
S'Superstition Super Bee'
p1075
sg1
(g5
S'\x0b\x01\x00\x00'
p1076
tp1077
Rp1078
S'Arizona Wilderness Picacho Pecan Pie Brown Ale'
p1079
sg1
(g5
S'\x0c\x01\x00\x00'
p1080
tp1081
Rp1082
S'Arizona Wilderness DC Mountain Double IPA'
p1083
sg1
(g5
S'\r\x01\x00\x00'
p1084
tp1085
Rp1086
S'Arizona Wilderness American Presidential Stout'
p1087
sg1
(g5
S'\x0e\x01\x00\x00'
p1088
tp1089
Rp1090
S'Sun Up White Russian Imperial Stout '
p1091
sg1
(g5
S'\x0f\x01\x00\x00'
p1092
tp1093
Rp1094
S'Superstition Peanut Butter Jelly Crime'
p1095
sg1
(g5
S'\x10\x01\x00\x00'
p1096
tp1097
Rp1098
S'Superstition Grand Cru Berry'
p1099
sg1
(g5
S'\x11\x01\x00\x00'
p1100
tp1101
Rp1102
S'Superstition Framboesa Atando'
p1103
sg1
(g5
S'\x12\x01\x00\x00'
p1104
tp1105
Rp1106
S'Superstition Black Berry White'
p1107
sg1
(g5
S'\x13\x01\x00\x00'
p1108
tp1109
Rp1110
S'Superstition Aphrodisia Pyment - Cabernet '
p1111
sg1
(g5
S'\x14\x01\x00\x00'
p1112
tp1113
Rp1114
S'Dragoon Lazarus'
p1115
sg1
(g5
S'\x15\x01\x00\x00'
p1116
tp1117
Rp1118
S'Superstition Straw Berry White'
p1119
sg1
(g5
S'\x16\x01\x00\x00'
p1120
tp1121
Rp1122
S'Superstition Endovelicus'
p1123
sg1
(g5
S'\x17\x01\x00\x00'
p1124
tp1125
Rp1126
S'Superstition Blue Berry White '
p1127
sg1
(g5
S'\x18\x01\x00\x00'
p1128
tp1129
Rp1130
S'Superstition Berry White'
p1131
sg1
(g5
S'\x19\x01\x00\x00'
p1132
tp1133
Rp1134
S'Anchorage Whiteout Wit Bier'
p1135
sg1
(g5
S'\x1a\x01\x00\x00'
p1136
tp1137
Rp1138
S'Anchorage The Experiment'
p1139
sg1
(g5
S'\x1b\x01\x00\x00'
p1140
tp1141
Rp1142
S'Midnight Sun XXX Black Double IPA'
p1143
sg1
(g5
S'\x1c\x01\x00\x00'
p1144
tp1145
Rp1146
S'Midnight Sun 2014 Alaskana Series: Termination Dust'
p1147
sg1
(g5
S'\x1d\x01\x00\x00'
p1148
tp1149
Rp1150
S'Midnight Sun 2009 Crew Brews: Brewtality'
p1151
sg1
(g5
S'\x1e\x01\x00\x00'
p1152
tp1153
Rp1154
S'Midnight Sun Monk\x8a\x97\xc8s Mistress (Bourbon)'
p1155
sg1
(g5
S'\x1f\x01\x00\x00'
p1156
tp1157
Rp1158
S'Anchorage Galaxy White IPA'
p1159
sg1
(g5
S' \x01\x00\x00'
p1160
tp1161
Rp1162
S'Anchorage / Jolly Pumpkin Calabaza Boreal '
p1163
sg1
(g5
S'!\x01\x00\x00'
p1164
tp1165
Rp1166
S'Alaskan Pilot Series: Barley Wine Ale'
p1167
sg1
(g5
S'"\x01\x00\x00'
p1168
tp1169
Rp1170
S'Midnight Sun T.R.E.A.T. Imperial Chocolate Pumpkin Porter'
p1171
sg1
(g5
S'#\x01\x00\x00'
p1172
tp1173
Rp1174
S'Anchorage The Tide and Its Takers Triple'
p1175
sg1
(g5
S'$\x01\x00\x00'
p1176
tp1177
Rp1178
S'Anchorage Mosaic Saison'
p1179
sg1
(g5
S'%\x01\x00\x00'
p1180
tp1181
Rp1182
S'Alaskan Smoked Porter'
p1183
sg1
(g5
S'&\x01\x00\x00'
p1184
tp1185
Rp1186
S'Midnight Sun Moscow'
p1187
sg1
(g5
S"'\x01\x00\x00"
p1188
tp1189
Rp1190
S'Midnight Sun Monk\x8a\x97\xc8s Mistress'
p1191
sg1
(g5
S'(\x01\x00\x00'
p1192
tp1193
Rp1194
S'Anchorage Love Buzz Saison'
p1195
sg1
(g5
S')\x01\x00\x00'
p1196
tp1197
Rp1198
S'Anchorage Darkest Hour Imperial Stout (2014-)'
p1199
sg1
(g5
S'*\x01\x00\x00'
p1200
tp1201
Rp1202
S'Anchorage Bitter Monk Belgian Style Double IPA'
p1203
sg1
(g5
S'+\x01\x00\x00'
p1204
tp1205
Rp1206
S'Midnight Sun Arctic Devil'
p1207
sg1
(g5
S',\x01\x00\x00'
p1208
tp1209
Rp1210
S'Anchorage Time Waits For No One'
p1211
sg1
(g5
S'-\x01\x00\x00'
p1212
tp1213
Rp1214
S'Anchorage A Deal With The Devil Barleywine'
p1215
sg1
(g5
S'.\x01\x00\x00'
p1216
tp1217
Rp1218
S'Midnight Sun 2010 Pop Ten: Barfly'
p1219
sg1
(g5
S'/\x01\x00\x00'
p1220
tp1221
Rp1222
S'Midnight Sun Berserker'
p1223
sg1
(g5
S'0\x01\x00\x00'
p1224
tp1225
Rp1226
S'Midnight Sun 2007 Deadly Sins: Sloth'
p1227
sg1
(g5
S'1\x01\x00\x00'
p1228
tp1229
Rp1230
S'Straight To Ale He Ain\x8a\x97\xc8t Heffe'
p1231
sg1
(g5
S'2\x01\x00\x00'
p1232
tp1233
Rp1234
S'Salty Nut Dahkness Stout'
p1235
sg1
(g5
S'3\x01\x00\x00'
p1236
tp1237
Rp1238
S'Back Forty Trade Day Cuban Coffee Stout'
p1239
sg1
(g5
S'4\x01\x00\x00'
p1240
tp1241
Rp1242
S'Straight To Ale Vern\x8a\x97\xc8s Wheat Wine'
p1243
sg1
(g5
S'5\x01\x00\x00'
p1244
tp1245
Rp1246
S'Good People Hitchhiker American IPA'
p1247
sg1
(g5
S'6\x01\x00\x00'
p1248
tp1249
Rp1250
S'Blue Pants Pinstripe Candy Bar Stout'
p1251
sg1
(g5
S'7\x01\x00\x00'
p1252
tp1253
Rp1254
S'Avondale Vanillaphant Porter'
p1255
sg1
(g5
S'8\x01\x00\x00'
p1256
tp1257
Rp1258
S'Fairhope Painted Black IPA'
p1259
sg1
(g5
S'9\x01\x00\x00'
p1260
tp1261
Rp1262
S'Straight To Ale Monkeynaut IPA'
p1263
sg1
(g5
S':\x01\x00\x00'
p1264
tp1265
Rp1266
S'Blue Pants Weedy\x8a\x97\xc8s Double IPA'
p1267
sg1
(g5
S';\x01\x00\x00'
p1268
tp1269
Rp1270
S'Straight To Ale Illudium'
p1271
sg1
(g5
S'<\x01\x00\x00'
p1272
tp1273
Rp1274
S'Good People Coffee Oatmeal Stout'
p1275
sg1
(g5
S'=\x01\x00\x00'
p1276
tp1277
Rp1278
S'Beer Engineers Peanut Butter Porter'
p1279
sg1
(g5
S'>\x01\x00\x00'
p1280
tp1281
Rp1282
S'Straight To Ale Monkey\x8a\x97\xc8s Uncle IIPA'
p1283
sg1
(g5
S'?\x01\x00\x00'
p1284
tp1285
Rp1286
S'Straight To Ale Unobtanium'
p1287
sg1
(g5
S'@\x01\x00\x00'
p1288
tp1289
Rp1290
S'Good People Fatso Imperial Stout'
p1291
sg1
(g5
S'A\x01\x00\x00'
p1292
tp1293
Rp1294
S'Straight To Ale Velvet Evil'
p1295
sg1
(g5
S'B\x01\x00\x00'
p1296
tp1297
Rp1298
S'Straight To Ale Gorillanaut Imperial IPA'
p1299
sg1
(g5
S'C\x01\x00\x00'
p1300
tp1301
Rp1302
S'Good People Snake Handler'
p1303
sg1
(g5
S'D\x01\x00\x00'
p1304
tp1305
Rp1306
S'Straight To Ale Laika Russian Imperial Stout - Cabernet Barrel Aged'
p1307
sg1
(g5
S'E\x01\x00\x00'
p1308
tp1309
Rp1310
S'SPB Lazarus'
p1311
sg1
(g5
S'F\x01\x00\x00'
p1312
tp1313
Rp1314
S'Goose Island Bourbon County Stout'
p1315
sg1
(g5
S'G\x01\x00\x00'
p1316
tp1317
Rp1318
S'Goose Island Bourbon County Stout - Rare 2015'
p1319
sg1
(g5
S'H\x01\x00\x00'
p1320
tp1321
Rp1322
S'Goose Island Bourbon County Stout - Coffee'
p1323
sg1
(g5
S'I\x01\x00\x00'
p1324
tp1325
Rp1326
S'Goose Island Bourbon County Barleywine'
p1327
sg1
(g5
S'J\x01\x00\x00'
p1328
tp1329
Rp1330
S'Flossmoor Station Pretty Big IPA'
p1331
sg1
(g5
S'K\x01\x00\x00'
p1332
tp1333
Rp1334
S'Peace Tree Hop Sutra'
p1335
sg1
(g5
S'L\x01\x00\x00'
p1336
tp1337
Rp1338
S'Blind Tiger Top Gun IPA'
p1339
sg1
(g5
S'M\x01\x00\x00'
p1340
tp1341
Rp1342
S'Bluegrass Bourbon Barrel Smoked Stout'
p1343
sg1
(g5
S'N\x01\x00\x00'
p1344
tp1345
Rp1346
S'Parish Envie Pale Ale'
p1347
sg1
(g5
S'O\x01\x00\x00'
p1348
tp1349
Rp1350
S'Maine Beer Zoe'
p1351
sg1
(g5
S'P\x01\x00\x00'
p1352
tp1353
Rp1354
S'DuClaw Black Jack Stout'
p1355
sg1
(g5
S'Q\x01\x00\x00'
p1356
tp1357
Rp1358
S'Tree House Green'
p1359
sg1
(g5
S'R\x01\x00\x00'
p1360
tp1361
Rp1362
S'Bell\x8a\x97\xc8s Two Hearted Ale'
p1363
sg1
(g5
S'S\x01\x00\x00'
p1364
tp1365
Rp1366
S'Town Hall Ol Jack Frost'
p1367
sg1
(g5
S'T\x01\x00\x00'
p1368
tp1369
Rp1370
S'Side Project Blanc de Blancs'
p1371
sg1
(g5
S'U\x01\x00\x00'
p1372
tp1373
Rp1374
S'Big Sky Shake-a-Day Mai Tai IPA'
p1375
sg1
(g5
S'V\x01\x00\x00'
p1376
tp1377
Rp1378
S'Lewis and Clark Tumbleweed IPA'
p1379
sg1
(g5
S'W\x01\x00\x00'
p1380
tp1381
Rp1382
S'Yellowstone Valley Numbskull IPA'
p1383
sg1
(g5
S'X\x01\x00\x00'
p1384
tp1385
Rp1386
S'Montana Brewing Custers Last Stout'
p1387
sg1
(g5
S'Y\x01\x00\x00'
p1388
tp1389
Rp1390
S'Big Sky Shake-A-Day India Pale Ale'
p1391
sg1
(g5
S'Z\x01\x00\x00'
p1392
tp1393
Rp1394
S'Big Hole Head Smashed In '
p1395
sg1
(g5
S'[\x01\x00\x00'
p1396
tp1397
Rp1398
S'Bozeman Bozone Plum St. Porter '
p1399
sg1
(g5
S'\\\x01\x00\x00'
p1400
tp1401
Rp1402
S'Bozeman Bozone HopZone IPA'
p1403
sg1
(g5
S']\x01\x00\x00'
p1404
tp1405
Rp1406
S'Big Sky Biere de Noel'
p1407
sg1
(g5
S'^\x01\x00\x00'
p1408
tp1409
Rp1410
S'Big Sky Rye Pale Ale'
p1411
sg1
(g5
S'_\x01\x00\x00'
p1412
tp1413
Rp1414
S'Big Sky IPA'
p1415
sg1
(g5
S'`\x01\x00\x00'
p1416
tp1417
Rp1418
S'Bitter Root Single Hop Ale - CTZ'
p1419
sg1
(g5
S'a\x01\x00\x00'
p1420
tp1421
Rp1422
S'The Front Mountain Man Scotch Ale'
p1423
sg1
(g5
S'b\x01\x00\x00'
p1424
tp1425
Rp1426
S'Draught Works Scepter Head IPA'
p1427
sg1
(g5
S'c\x01\x00\x00'
p1428
tp1429
Rp1430
S'Carters Saison De Carter'
p1431
sg1
(g5
S'd\x01\x00\x00'
p1432
tp1433
Rp1434
S'Big Sky Cowboy Coffee Porter'
p1435
sg1
(g5
S'e\x01\x00\x00'
p1436
tp1437
Rp1438
S'Bitter Root Last Cast Black IPA'
p1439
sg1
(g5
S'f\x01\x00\x00'
p1440
tp1441
Rp1442
S'Kettle House Olde Bongwater Hemp Porter'
p1443
sg1
(g5
S'g\x01\x00\x00'
p1444
tp1445
Rp1446
S'Montana Brewing Beartooth Espresso Porter'
p1447
sg1
(g5
S'h\x01\x00\x00'
p1448
tp1449
Rp1450
S'Flathead Lake The Imperial IPA'
p1451
sg1
(g5
S'i\x01\x00\x00'
p1452
tp1453
Rp1454
S'Big Sky Bobo\x8a\x97\xc8s Robust Porter'
p1455
sg1
(g5
S'j\x01\x00\x00'
p1456
tp1457
Rp1458
S'Carters De-Railed IPA'
p1459
sg1
(g5
S'k\x01\x00\x00'
p1460
tp1461
Rp1462
S'Big Sky Olde Bluehair Barleywine'
p1463
sg1
(g5
S'l\x01\x00\x00'
p1464
tp1465
Rp1466
S'Big Sky Ivan The Terrible Imperial Stout '
p1467
sg1
(g5
S'm\x01\x00\x00'
p1468
tp1469
Rp1470
S'Big Sky Ivan the Terrible Imperial Stout - Bourbon Barrel'
p1471
sg1
(g5
S'n\x01\x00\x00'
p1472
tp1473
Rp1474
S'Side Project / De Garde Orviamo'
p1475
sg1
(g5
S'o\x01\x00\x00'
p1476
tp1477
Rp1478
S'Boulevard Smokestack Series: Saison-Brett'
p1479
sg1
(g5
S'p\x01\x00\x00'
p1480
tp1481
Rp1482
S'Side Project Saison du Fermier'
p1483
sg1
(g5
S'q\x01\x00\x00'
p1484
tp1485
Rp1486
S'Perennial Barrel Aged Sump (Rwandan Kyoto)'
p1487
sg1
(g5
S'r\x01\x00\x00'
p1488
tp1489
Rp1490
S'Side Project Unblended (Barrel #40)'
p1491
sg1
(g5
S's\x01\x00\x00'
p1492
tp1493
Rp1494
S'Side Project Saison du Bl\x92\xa9'
p1495
sg1
(g5
S't\x01\x00\x00'
p1496
tp1497
Rp1498
S'Perennial Vanilla Abraxas'
p1499
sg1
(g5
S'u\x01\x00\x00'
p1500
tp1501
Rp1502
S'Perennial Maman'
p1503
sg1
(g5
S'v\x01\x00\x00'
p1504
tp1505
Rp1506
S'Perennial Coffee Abraxas'
p1507
sg1
(g5
S'w\x01\x00\x00'
p1508
tp1509
Rp1510
S'Side Project One Candle'
p1511
sg1
(g5
S'x\x01\x00\x00'
p1512
tp1513
Rp1514
S'Perennial Barrel Aged Sump'
p1515
sg1
(g5
S'y\x01\x00\x00'
p1516
tp1517
Rp1518
S'Mother\x8a\x97\xc8s MILF'
p1519
sg1
(g5
S'z\x01\x00\x00'
p1520
tp1521
Rp1522
S'Side Project Thicket'
p1523
sg1
(g5
S'{\x01\x00\x00'
p1524
tp1525
Rp1526
S'Side Project Fuzzy'
p1527
sg1
(g5
S'|\x01\x00\x00'
p1528
tp1529
Rp1530
S'Side Project Bleuet du Fermier'
p1531
sg1
(g5
S'}\x01\x00\x00'
p1532
tp1533
Rp1534
S'Side Project Abricot du Fermier'
p1535
sg1
(g5
S'~\x01\x00\x00'
p1536
tp1537
Rp1538
S'Perennial Sump'
p1539
sg1
(g5
S'\x7f\x01\x00\x00'
p1540
tp1541
Rp1542
S'Perennial Blue Label Maman - Evan Williams 23 '
p1543
sg1
(g5
S'\x80\x01\x00\x00'
p1544
tp1545
Rp1546
S'Side Project Framboise du Fermier'
p1547
sg1
(g5
S'\x81\x01\x00\x00'
p1548
tp1549
Rp1550
S'Side Project Derivation Blend #3'
p1551
sg1
(g5
S'\x82\x01\x00\x00'
p1552
tp1553
Rp1554
S'Perennial Abraxas'
p1555
sg1
(g5
S'\x83\x01\x00\x00'
p1556
tp1557
Rp1558
S'Side Project Derivation Blend #2'
p1559
sg1
(g5
S'\x84\x01\x00\x00'
p1560
tp1561
Rp1562
S'Side Project Derivation Blend #1'
p1563
sg1
(g5
S'\x85\x01\x00\x00'
p1564
tp1565
Rp1566
S'Perennial Barrel Aged Abraxas'
p1567
sg1
(g5
S'\x86\x01\x00\x00'
p1568
tp1569
Rp1570
S'Lazy Magnolia Me and the Dev-Ale'
p1571
sg1
(g5
S'\x87\x01\x00\x00'
p1572
tp1573
Rp1574
S'SPB Cicada Series Suzy Smash'
p1575
sg1
(g5
S'\x88\x01\x00\x00'
p1576
tp1577
Rp1578
S'SPB Devil\x8a\x97\xc8s Harvest American Pale Ale (Redux) (2016 - )'
p1579
sg1
(g5
S'\x89\x01\x00\x00'
p1580
tp1581
Rp1582
S'SPB Cicada Series Hipster Breakfast'
p1583
sg1
(g5
S'\x8a\x01\x00\x00'
p1584
tp1585
Rp1586
S'SPB Sinister Minister'
p1587
sg1
(g5
S'\x8b\x01\x00\x00'
p1588
tp1589
Rp1590
S'SPB Jack the Sipper'
p1591
sg1
(g5
S'\x8c\x01\x00\x00'
p1592
tp1593
Rp1594
S'Chandeleur Curlew\x8a\x97\xc8s Toasted Coconut Porter'
p1595
sg1
(g5
S'\x8d\x01\x00\x00'
p1596
tp1597
Rp1598
S'SPB Devil\x8a\x97\xc8s Harvest Extra Pale Ale (-2016)'
p1599
sg1
(g5
S'\x8e\x01\x00\x00'
p1600
tp1601
Rp1602
S'Lazy Magnolia Jefferson Stout'
p1603
sg1
(g5
S'\x8f\x01\x00\x00'
p1604
tp1605
Rp1606
S'Chandeleur Lil Smack IPA'
p1607
sg1
(g5
S'\x90\x01\x00\x00'
p1608
tp1609
Rp1610
S'SPB Mississippi Fire Ant'
p1611
sg1
(g5
S'\x91\x01\x00\x00'
p1612
tp1613
Rp1614
S'Lazy Magnolia Gulf Porter'
p1615
sg1
(g5
S'\x92\x01\x00\x00'
p1616
tp1617
Rp1618
S'SPB Cicada Series 2014 IPA'
p1619
sg1
(g5
S'\x93\x01\x00\x00'
p1620
tp1621
Rp1622
S'Lazy Magnolia Black Creek Southern Style Imperial Stout'
p1623
sg1
(g5
S'\x94\x01\x00\x00'
p1624
tp1625
Rp1626
S'Lazy Magnolia Ginger Jaque'
p1627
sg1
(g5
S'\x95\x01\x00\x00'
p1628
tp1629
Rp1630
S'Lazy Magnolia Southern Hops\x8a\x97\xc8pitality'
p1631
sg1
(g5
S'\x96\x01\x00\x00'
p1632
tp1633
Rp1634
S'SPB Cicada Series 2015 IPA'
p1635
sg1
(g5
S'\x97\x01\x00\x00'
p1636
tp1637
Rp1638
S'Lazy Magnolia 10'
p1639
sg1
(g5
S'\x98\x01\x00\x00'
p1640
tp1641
Rp1642
S'Crooked Letter Mystery Romp'
p1643
sg1
(g5
S'\x99\x01\x00\x00'
p1644
tp1645
Rp1646
S'SPB Mississippi Fire Ant: Bourbon Barrel Aged '
p1647
sg1
(g5
S'\x9a\x01\x00\x00'
p1648
tp1649
Rp1650
S'SPB Cicada Series R\xf3\xdbgana Baltic Porter'
p1651
sg1
(g5
S'\x9b\x01\x00\x00'
p1652
tp1653
Rp1654
S'Lazy Magnolia Southern Gentleman'
p1655
sg1
(g5
S'\x9c\x01\x00\x00'
p1656
tp1657
Rp1658
S'Lazy Magnolia Timber Beast'
p1659
sg1
(g5
S'\x9d\x01\x00\x00'
p1660
tp1661
Rp1662
S'SPB Crowd Control'
p1663
sg1
(g5
S'\x9e\x01\x00\x00'
p1664
tp1665
Rp1666
S'Brau Brothers Rye Wyne Ale 2011'
p1667
sg1
(g5
S'\x9f\x01\x00\x00'
p1668
tp1669
Rp1670
S'Indeed D.I.D.D.C.W.Q.M.S'
p1671
sg1
(g5
S'\xa0\x01\x00\x00'
p1672
tp1673
Rp1674
S'Town Hall Twisted Trace'
p1675
sg1
(g5
S'\xa1\x01\x00\x00'
p1676
tp1677
Rp1678
S'Surly Blakkr'
p1679
sg1
(g5
S'\xa2\x01\x00\x00'
p1680
tp1681
Rp1682
S'Schell Noble Star - Starkeller Peach'
p1683
sg1
(g5
S'\xa3\x01\x00\x00'
p1684
tp1685
Rp1686
S'Town Hall Coconut Milk Stout'
p1687
sg1
(g5
S'\xa4\x01\x00\x00'
p1688
tp1689
Rp1690
S'Surly Wet 2012 & 2015'
p1691
sg1
(g5
S'\xa5\x01\x00\x00'
p1692
tp1693
Rp1694
S'Lift Bridge Silhouette Bourbon Barrel Aged Russian Imperial Stout'
p1695
sg1
(g5
S'\xa6\x01\x00\x00'
p1696
tp1697
Rp1698
S'Bent Paddle Double Shot Double Black'
p1699
sg1
(g5
S'\xa7\x01\x00\x00'
p1700
tp1701
Rp1702
S'Fitgers Edmund Imperial Stout (Bourbon Barrel)'
p1703
sg1
(g5
S'\xa8\x01\x00\x00'
p1704
tp1705
Rp1706
S'Town Hall Wee Heavy'
p1707
sg1
(g5
S'\xa9\x01\x00\x00'
p1708
tp1709
Rp1710
S'Dangerous Man Peanut Butter Porter'
p1711
sg1
(g5
S'\xaa\x01\x00\x00'
p1712
tp1713
Rp1714
S'Town Hall Masala Mama IPA'
p1715
sg1
(g5
S'\xab\x01\x00\x00'
p1716
tp1717
Rp1718
S'Surly Furious'
p1719
sg1
(g5
S'\xac\x01\x00\x00'
p1720
tp1721
Rp1722
S'Steel Toe Before the Dawn'
p1723
sg1
(g5
S'\xad\x01\x00\x00'
p1724
tp1725
Rp1726
S'Surly / Amager Todd - The Axe Man (Surly Version)'
p1727
sg1
(g5
S'\xae\x01\x00\x00'
p1728
tp1729
Rp1730
S'Surly Four'
p1731
sg1
(g5
S'\xaf\x01\x00\x00'
p1732
tp1733
Rp1734
S'Town Hall Russian Roulette'
p1735
sg1
(g5
S'\xb0\x01\x00\x00'
p1736
tp1737
Rp1738
S'Town Hall Czar Jack Imperial Stout'
p1739
sg1
(g5
S'\xb1\x01\x00\x00'
p1740
tp1741
Rp1742
S'Barley Johns Rosies Ale'
p1743
sg1
(g5
S'\xb2\x01\x00\x00'
p1744
tp1745
Rp1746
S'Surly Abrasive Ale'
p1747
sg1
(g5
S'\xb3\x01\x00\x00'
p1748
tp1749
Rp1750
S'Surly Darkness 2014 - Bottled'
p1751
sg1
(g5
S'\xb4\x01\x00\x00'
p1752
tp1753
Rp1754
S'Barley Johns The Dark Knight (Returns)'
p1755
sg1
(g5
S'\xb5\x01\x00\x00'
p1756
tp1757
Rp1758
S'Surly Darkness'
p1759
sg1
(g5
S'\xb6\x01\x00\x00'
p1760
tp1761
Rp1762
S'Bell\x8a\x97\xc8s Bourbon Barrel Batch 9000 Ale  '
p1763
sg1
(g5
S'\xb7\x01\x00\x00'
p1764
tp1765
Rp1766
S'Bell\x8a\x97\xc8s Traverse City Whiskey Barrel-Aged Expedition Stout'
p1767
sg1
(g5
S'\xb8\x01\x00\x00'
p1768
tp1769
Rp1770
S'Schramm\x8a\x97\xc8s Raspberry'
p1771
sg1
(g5
S'\xb9\x01\x00\x00'
p1772
tp1773
Rp1774
S'Founders Imperial Stout'
p1775
sg1
(g5
S'\xba\x01\x00\x00'
p1776
tp1777
Rp1778
S'The Livery Bourbon Barrel Aged Wheat Trippelbock'
p1779
sg1
(g5
S'\xbb\x01\x00\x00'
p1780
tp1781
Rp1782
S'Schramm\x8a\x97\xc8s Apple'
p1783
sg1
(g5
S'\xbc\x01\x00\x00'
p1784
tp1785
Rp1786
S'Perrin No Rules Vietnamese Porter'
p1787
sg1
(g5
S'\xbd\x01\x00\x00'
p1788
tp1789
Rp1790
S'Kuhnhenn Fourth Dementia (4D) Old Ale - Bourbon Barrel '
p1791
sg1
(g5
S'\xbe\x01\x00\x00'
p1792
tp1793
Rp1794
S'Founders Bourbon Barrel Imperial Stout'
p1795
sg1
(g5
S'\xbf\x01\x00\x00'
p1796
tp1797
Rp1798
S'Schramm\x8a\x97\xc8s The Statement'
p1799
sg1
(g5
S'\xc0\x01\x00\x00'
p1800
tp1801
Rp1802
S'Founders Breakfast Stout'
p1803
sg1
(g5
S'\xc1\x01\x00\x00'
p1804
tp1805
Rp1806
S'Bell\x8a\x97\xc8s Hopslam'
p1807
sg1
(g5
S'\xc2\x01\x00\x00'
p1808
tp1809
Rp1810
S'Kuhnhenn Bourbon Barrel French Toast Mead'
p1811
sg1
(g5
S'\xc3\x01\x00\x00'
p1812
tp1813
Rp1814
S'Dark Horse Bourbon Barrel Plead the 5th Imperial Stout'
p1815
sg1
(g5
S'\xc4\x01\x00\x00'
p1816
tp1817
Rp1818
S'Schramm\x8a\x97\xc8s The Statement - Reserve'
p1819
sg1
(g5
S'\xc5\x01\x00\x00'
p1820
tp1821
Rp1822
S'Schramm\x8a\x97\xc8s Black Agnes'
p1823
sg1
(g5
S'\xc6\x01\x00\x00'
p1824
tp1825
Rp1826
S'Schramm\x8a\x97\xc8s Cranberry'
p1827
sg1
(g5
S'\xc7\x01\x00\x00'
p1828
tp1829
Rp1830
S'Schramm\x8a\x97\xc8s Red Agnes'
p1831
sg1
(g5
S'\xc8\x01\x00\x00'
p1832
tp1833
Rp1834
S'Bell\x8a\x97\xc8s Bourbon Barrel-Aged Expedition Stout'
p1835
sg1
(g5
S'\xc9\x01\x00\x00'
p1836
tp1837
Rp1838
S'Bell\x8a\x97\xc8s Expedition Stout'
p1839
sg1
(g5
S'\xca\x01\x00\x00'
p1840
tp1841
Rp1842
S'Founders KBS (Kentucky Breakfast Stout)'
p1843
sg1
(g5
S'\xcb\x01\x00\x00'
p1844
tp1845
Rp1846
S'Bell\x8a\x97\xc8s Black Note Stout'
p1847
sg1
(g5
S'\xcc\x01\x00\x00'
p1848
tp1849
Rp1850
S'Schramm\x8a\x97\xc8s The Heart of Darkness'
p1851
sg1
(g5
S'\xcd\x01\x00\x00'
p1852
tp1853
Rp1854
S'Schramm\x8a\x97\xc8s Madeline'
p1855
sg1
(g5
S'\xce\x01\x00\x00'
p1856
tp1857
Rp1858
S'Trillium Congress Street IPA'
p1859
sg1
(g5
S'\xcf\x01\x00\x00'
p1860
tp1861
Rp1862
S'Trillium Mettle'
p1863
sg1
(g5
S'\xd0\x01\x00\x00'
p1864
tp1865
Rp1866
S'Tree House Double Shot'
p1867
sg1
(g5
S'\xd1\x01\x00\x00'
p1868
tp1869
Rp1870
S'Trillium Melcher Street IPA'
p1871
sg1
(g5
S'\xd2\x01\x00\x00'
p1872
tp1873
Rp1874
S'Trillium Summer Street IPA - Double Dry Hopped'
p1875
sg1
(g5
S'\xd3\x01\x00\x00'
p1876
tp1877
Rp1878
S'Trillium Headroom'
p1879
sg1
(g5
S'\xd4\x01\x00\x00'
p1880
tp1881
Rp1882
S'Tree House In Perpetuity'
p1883
sg1
(g5
S'\xd5\x01\x00\x00'
p1884
tp1885
Rp1886
S'Trillium Scaled - Double Dry Hopped'
p1887
sg1
(g5
S'\xd6\x01\x00\x00'
p1888
tp1889
Rp1890
S'Samuel Adams Utopias'
p1891
sg1
(g5
S'\xd7\x01\x00\x00'
p1892
tp1893
Rp1894
S'Trillium Fort Point Pale Ale'
p1895
sg1
(g5
S'\xd8\x01\x00\x00'
p1896
tp1897
Rp1898
S'Tree House Haze'
p1899
sg1
(g5
S'\xd9\x01\x00\x00'
p1900
tp1901
Rp1902
S'Trillium Fort Point Pale Ale - Galaxy Dry Hopped'
p1903
sg1
(g5
S'\xda\x01\x00\x00'
p1904
tp1905
Rp1906
S'Trillium Congress Street IPA - Double Dry Hopped'
p1907
sg1
(g5
S'\xdb\x01\x00\x00'
p1908
tp1909
Rp1910
S'Trillium Fort Point Pale Ale - Double Dry Hopped'
p1911
sg1
(g5
S'\xdc\x01\x00\x00'
p1912
tp1913
Rp1914
S'Trillium Upper Case'
p1915
sg1
(g5
S'\xdd\x01\x00\x00'
p1916
tp1917
Rp1918
S'Tree House Juice Machine (2015- )'
p1919
sg1
(g5
S'\xde\x01\x00\x00'
p1920
tp1921
Rp1922
S'Tree House Doppelganger'
p1923
sg1
(g5
S'\xdf\x01\x00\x00'
p1924
tp1925
Rp1926
S'Trillium Fort Point Pale Ale - Mosaic Dry Hopped'
p1927
sg1
(g5
S'\xe0\x01\x00\x00'
p1928
tp1929
Rp1930
S'Tree House Very Hazy'
p1931
sg1
(g5
S'\xe1\x01\x00\x00'
p1932
tp1933
Rp1934
S'Tree House Julius'
p1935
sg1
(g5
S'\xe2\x01\x00\x00'
p1936
tp1937
Rp1938
S'Trillium Melcher Street IPA - Double Dry Hopped'
p1939
sg1
(g5
S'\xe3\x01\x00\x00'
p1940
tp1941
Rp1942
S'Trillium Vicinity'
p1943
sg1
(g5
S'\xe4\x01\x00\x00'
p1944
tp1945
Rp1946
S'Tree House Alter Ego'
p1947
sg1
(g5
S'\xe5\x01\x00\x00'
p1948
tp1949
Rp1950
S'Tree House Good Morning'
p1951
sg1
(g5
S'\xe6\x01\x00\x00'
p1952
tp1953
Rp1954
S'Stillwater Beer Table - Table Beer'
p1955
sg1
(g5
S'\xe7\x01\x00\x00'
p1956
tp1957
Rp1958
S'Flying Dog Imperial IPA - Citra Single Hop'
p1959
sg1
(g5
S'\xe8\x01\x00\x00'
p1960
tp1961
Rp1962
S'Flying Dog Double Dog Double Pale Ale'
p1963
sg1
(g5
S'\xe9\x01\x00\x00'
p1964
tp1965
Rp1966
S'Stillwater Even Less Jesus (Remix)'
p1967
sg1
(g5
S'\xea\x01\x00\x00'
p1968
tp1969
Rp1970
S'Flying Dog Brewhouse Rarities: Smoked Belgian Stout'
p1971
sg1
(g5
S'\xeb\x01\x00\x00'
p1972
tp1973
Rp1974
S'Stillwater Contemporary Works - Surround'
p1975
sg1
(g5
S'\xec\x01\x00\x00'
p1976
tp1977
Rp1978
S'Flying Dog Barrel-Aged Horn Dog'
p1979
sg1
(g5
S'\xed\x01\x00\x00'
p1980
tp1981
Rp1982
S'DuClaw Retribution'
p1983
sg1
(g5
S'\xee\x01\x00\x00'
p1984
tp1985
Rp1986
S'Stillwater / Mikkeller Rauchstar'
p1987
sg1
(g5
S'\xef\x01\x00\x00'
p1988
tp1989
Rp1990
S'Flying Dog Kujo'
p1991
sg1
(g5
S'\xf0\x01\x00\x00'
p1992
tp1993
Rp1994
S'DuClaw Repent'
p1995
sg1
(g5
S'\xf1\x01\x00\x00'
p1996
tp1997
Rp1998
S'Stillwater Import Series Vol. 5 \x8a\x97\xc8Debauched\x8a\x97\xc8 - Brunello Barrel'
p1999
sg1
(g5
S'\xf2\x01\x00\x00'
p2000
tp2001
Rp2002
S'Stillwater Give-Way'
p2003
sg1
(g5
S'\xf3\x01\x00\x00'
p2004
tp2005
Rp2006
S'Heavy Seas Uncharted Waters: Siren Noire (2013 -)'
p2007
sg1
(g5
S'\xf4\x01\x00\x00'
p2008
tp2009
Rp2010
S'Stillwater Barrel Aged Series - Folklore, the tale of Van Winkle'
p2011
sg1
(g5
S'\xf5\x01\x00\x00'
p2012
tp2013
Rp2014
S'Stillwater Barrel Aged Series - Cellar Door'
p2015
sg1
(g5
S'\xf6\x01\x00\x00'
p2016
tp2017
Rp2018
S'Stillwater / Casita Cerveceria On Fleek'
p2019
sg1
(g5
S'\xf7\x01\x00\x00'
p2020
tp2021
Rp2022
S'Stillwater G13'
p2023
sg1
(g5
S'\xf8\x01\x00\x00'
p2024
tp2025
Rp2026
S'Stillwater Barrel Aged Series - Stateside Saison'
p2027
sg1
(g5
S'\xf9\x01\x00\x00'
p2028
tp2029
Rp2030
S'DuClaw Oak Aged Black Jack Stout'
p2031
sg1
(g5
S'\xfa\x01\x00\x00'
p2032
tp2033
Rp2034
S'Heavy Seas Uncharted Waters: Blackbeard\x8a\x97\xc8s Breakfast'
p2035
sg1
(g5
S'\xfb\x01\x00\x00'
p2036
tp2037
Rp2038
S'Flying Dog Wild Dog Barrel-Aged Gonzo '
p2039
sg1
(g5
S'\xfc\x01\x00\x00'
p2040
tp2041
Rp2042
S'Flying Dog Gonzo Imperial Porter '
p2043
sg1
(g5
S'\xfd\x01\x00\x00'
p2044
tp2045
Rp2046
S'Stillwater Gose Gone Wild'
p2047
sg1
(g5
S'\xfe\x01\x00\x00'
p2048
tp2049
Rp2050
S'Maine Beer King Titus'
p2051
sg1
(g5
S'\xff\x01\x00\x00'
p2052
tp2053
Rp2054
S'Allagash St. Klippenstein'
p2055
sg1
(g5
S'\x00\x02\x00\x00'
p2056
tp2057
Rp2058
S'Allagash Nancy'
p2059
sg1
(g5
S'\x01\x02\x00\x00'
p2060
tp2061
Rp2062
S'Allagash Coolship Cerise'
p2063
sg1
(g5
S'\x02\x02\x00\x00'
p2064
tp2065
Rp2066
S'Maine Beer Weez'
p2067
sg1
(g5
S'\x03\x02\x00\x00'
p2068
tp2069
Rp2070
S'Maine Beer II'
p2071
sg1
(g5
S'\x04\x02\x00\x00'
p2072
tp2073
Rp2074
S'Allagash Tripel Reserve'
p2075
sg1
(g5
S'\x05\x02\x00\x00'
p2076
tp2077
Rp2078
S'Allagash Interlude'
p2079
sg1
(g5
S'\x06\x02\x00\x00'
p2080
tp2081
Rp2082
S'Allagash Tiarna'
p2083
sg1
(g5
S'\x07\x02\x00\x00'
p2084
tp2085
Rp2086
S'Allagash Golden Brett'
p2087
sg1
(g5
S'\x08\x02\x00\x00'
p2088
tp2089
Rp2090
S'Allagash Farm to Face'
p2091
sg1
(g5
S'\t\x02\x00\x00'
p2092
tp2093
Rp2094
S'Allagash Merveilleux'
p2095
sg1
(g5
S'\n\x02\x00\x00'
p2096
tp2097
Rp2098
S'Allagash Coolship Red'
p2099
sg1
(g5
S'\x0b\x02\x00\x00'
p2100
tp2101
Rp2102
S'Oxbow / Stillwater Stillbow Oxtisanal'
p2103
sg1
(g5
S'\x0c\x02\x00\x00'
p2104
tp2105
Rp2106
S'Allagash Century Ale'
p2107
sg1
(g5
S'\r\x02\x00\x00'
p2108
tp2109
Rp2110
S'Allagash Avanc\x92\xa9'
p2111
sg1
(g5
S'\x0e\x02\x00\x00'
p2112
tp2113
Rp2114
S'Maine Beer MO'
p2115
sg1
(g5
S'\x0f\x02\x00\x00'
p2116
tp2117
Rp2118
S'Maine Beer I'
p2119
sg1
(g5
S'\x10\x02\x00\x00'
p2120
tp2121
Rp2122
S'Foundation Epiphany IPA'
p2123
sg1
(g5
S'\x11\x02\x00\x00'
p2124
tp2125
Rp2126
S'NOLA / 7venth Sun House of the Rising'
p2127
sg1
(g5
S'\x12\x02\x00\x00'
p2128
tp2129
Rp2130
S'NOLA Girl Stout Cookie'
p2131
sg1
(g5
S'\x13\x02\x00\x00'
p2132
tp2133
Rp2134
S'Bissell Brothers Swish'
p2135
sg1
(g5
S'\x14\x02\x00\x00'
p2136
tp2137
Rp2138
S'Maine Beer Lunch'
p2139
sg1
(g5
S'\x15\x02\x00\x00'
p2140
tp2141
Rp2142
S'Maine Beer Another One'
p2143
sg1
(g5
S'\x16\x02\x00\x00'
p2144
tp2145
Rp2146
S'Allagash Cuv\x92\xa9e d\x8a\x97\xc8Industrial'
p2147
sg1
(g5
S'\x17\x02\x00\x00'
p2148
tp2149
Rp2150
S'Maine Beer Dinner'
p2151
sg1
(g5
S'\x18\x02\x00\x00'
p2152
tp2153
Rp2154
S'Abita Select Imperator'
p2155
sg1
(g5
S'\x19\x02\x00\x00'
p2156
tp2157
Rp2158
S'Abita Wrought Iron IPA'
p2159
sg1
(g5
S'\x1a\x02\x00\x00'
p2160
tp2161
Rp2162
S'Bayou Teche Saison d\x8a\x97\xc8Ecrevisse (-2015)'
p2163
sg1
(g5
S'\x1b\x02\x00\x00'
p2164
tp2165
Rp2166
S'Great Raft All My Tomorrows'
p2167
sg1
(g5
S'\x1c\x02\x00\x00'
p2168
tp2169
Rp2170
S'Parish Dr Hoptagon'
p2171
sg1
(g5
S'\x1d\x02\x00\x00'
p2172
tp2173
Rp2174
S'Bayou Teche Biere Joi Barrel Aged'
p2175
sg1
(g5
S'\x1e\x02\x00\x00'
p2176
tp2177
Rp2178
S'Great Raft Reasonably Corrupt Schwarzbier'
p2179
sg1
(g5
S'\x1f\x02\x00\x00'
p2180
tp2181
Rp2182
S'Abita Bourbon Street Baltic Porter'
p2183
sg1
(g5
S' \x02\x00\x00'
p2184
tp2185
Rp2186
S'Parish Grand Reserve'
p2187
sg1
(g5
S'!\x02\x00\x00'
p2188
tp2189
Rp2190
S'Abita Bourbon Street Coffee Stout'
p2191
sg1
(g5
S'"\x02\x00\x00'
p2192
tp2193
Rp2194
S'Parish Opus Vert'
p2195
sg1
(g5
S'#\x02\x00\x00'
p2196
tp2197
Rp2198
S'NOLA Irish Channel Stout'
p2199
sg1
(g5
S'$\x02\x00\x00'
p2200
tp2201
Rp2202
S'NOLA Sauvage'
p2203
sg1
(g5
S'%\x02\x00\x00'
p2204
tp2205
Rp2206
S'Chafunkta Old 504 Porter'
p2207
sg1
(g5
S'&\x02\x00\x00'
p2208
tp2209
Rp2210
S'Bayou Teche Loup Garou'
p2211
sg1
(g5
S"'\x02\x00\x00"
p2212
tp2213
Rp2214
S'Abita Macchiato Espresso Milk Stout'
p2215
sg1
(g5
S'(\x02\x00\x00'
p2216
tp2217
Rp2218
S'Abita Bourbon Street Barrel Aged Imperial Stout'
p2219
sg1
(g5
S')\x02\x00\x00'
p2220
tp2221
Rp2222
S'Parish Farmhouse IPA'
p2223
sg1
(g5
S'*\x02\x00\x00'
p2224
tp2225
Rp2226
S'Abita Shotgun Double IPA'
p2227
sg1
(g5
S'+\x02\x00\x00'
p2228
tp2229
Rp2230
S'NOLA Piety'
p2231
sg1
(g5
S',\x02\x00\x00'
p2232
tp2233
Rp2234
S'NOLA Lowerline'
p2235
sg1
(g5
S'-\x02\x00\x00'
p2236
tp2237
Rp2238
S'Parish Ghost In The Machine'
p2239
sg1
(g5
S'.\x02\x00\x00'
p2240
tp2241
Rp2242
S'Country Boy Papaw\x8a\x97\xc8s Red Ale'
p2243
sg1
(g5
S'/\x02\x00\x00'
p2244
tp2245
Rp2246
S'West Sixth IPA'
p2247
sg1
(g5
S'0\x02\x00\x00'
p2248
tp2249
Rp2250
S'Against the Grain Tropical Segway Kitten'
p2251
sg1
(g5
S'1\x02\x00\x00'
p2252
tp2253
Rp2254
S'Bluegrass Russian Imperial Porter'
p2255
sg1
(g5
S'2\x02\x00\x00'
p2256
tp2257
Rp2258
S'Braxton Dead Blow - Starter Coffee'
p2259
sg1
(g5
S'3\x02\x00\x00'
p2260
tp2261
Rp2262
S'Bluegrass Bearded Pats Barleywine Style Ale'
p2263
sg1
(g5
S'4\x02\x00\x00'
p2264
tp2265
Rp2266
S'West Sixth Snakes In A Barrel '
p2267
sg1
(g5
S'5\x02\x00\x00'
p2268
tp2269
Rp2270
S'Against the Grain Gnight Ryder'
p2271
sg1
(g5
S'6\x02\x00\x00'
p2272
tp2273
Rp2274
S'Against the Grain Rico Sauvin'
p2275
sg1
(g5
S'7\x02\x00\x00'
p2276
tp2277
Rp2278
S'Against the Grain The Green Dragon'
p2279
sg1
(g5
S'8\x02\x00\x00'
p2280
tp2281
Rp2282
S'Against the Grain Citra Ass Down'
p2283
sg1
(g5
S'9\x02\x00\x00'
p2284
tp2285
Rp2286
S'Against the Grain 35K Stout'
p2287
sg1
(g5
S':\x02\x00\x00'
p2288
tp2289
Rp2290
S'Country Boy 4th Anniversary Wild Red Ale'
p2291
sg1
(g5
S';\x02\x00\x00'
p2292
tp2293
Rp2294
S'West Sixth Snake Eyes Imperial Stout '
p2295
sg1
(g5
S'<\x02\x00\x00'
p2296
tp2297
Rp2298
S'Against the Grain / Dry & Bitter Your Lytest One'
p2299
sg1
(g5
S'=\x02\x00\x00'
p2300
tp2301
Rp2302
S'Bluegrass Cherry Inyouendo'
p2303
sg1
(g5
S'>\x02\x00\x00'
p2304
tp2305
Rp2306
S'Bluegrass Bourbon Barrel Russian Imperial Porter'
p2307
sg1
(g5
S'?\x02\x00\x00'
p2308
tp2309
Rp2310
S'Country Boy Infinite Sadness'
p2311
sg1
(g5
S'@\x02\x00\x00'
p2312
tp2313
Rp2314
S'Against the Grain London Balling'
p2315
sg1
(g5
S'A\x02\x00\x00'
p2316
tp2317
Rp2318
S'Against the Grain Brett The Hipman Hop'
p2319
sg1
(g5
S'B\x02\x00\x00'
p2320
tp2321
Rp2322
S'Against the Grain / To \x92\x85l An Ale Pleasure'
p2323
sg1
(g5
S'C\x02\x00\x00'
p2324
tp2325
Rp2326
S'Quaff Bros Full Allotment'
p2327
sg1
(g5
S'D\x02\x00\x00'
p2328
tp2329
Rp2330
S'Against the Grain / De Molen Bo & Luke'
p2331
sg1
(g5
S'E\x02\x00\x00'
p2332
tp2333
Rp2334
S'Against the Grain 70K'
p2335
sg1
(g5
S'F\x02\x00\x00'
p2336
tp2337
Rp2338
S'Defiance Fuzzy Knuckles'
p2339
sg1
(g5
S'G\x02\x00\x00'
p2340
tp2341
Rp2342
S'Free State Hop Picker Pale Ale'
p2343
sg1
(g5
S'H\x02\x00\x00'
p2344
tp2345
Rp2346
S'Liquid Bread Liberty Stout'
p2347
sg1
(g5
S'I\x02\x00\x00'
p2348
tp2349
Rp2350
S'Tallgrass 16-Bit DPA'
p2351
sg1
(g5
S'J\x02\x00\x00'
p2352
tp2353
Rp2354
S'Blind Tiger Java Porter'
p2355
sg1
(g5
S'K\x02\x00\x00'
p2356
tp2357
Rp2358
S'Free State Hop Jack Ale'
p2359
sg1
(g5
S'L\x02\x00\x00'
p2360
tp2361
Rp2362
S'Free State Belgian Muse IPA'
p2363
sg1
(g5
S'M\x02\x00\x00'
p2364
tp2365
Rp2366
S'Liquid Bread Oatmeal Stout'
p2367
sg1
(g5
S'N\x02\x00\x00'
p2368
tp2369
Rp2370
S'Free State Stormwatch Dark Ale'
p2371
sg1
(g5
S'O\x02\x00\x00'
p2372
tp2373
Rp2374
S'Tallgrass Vanilla Bean Buffalo Sweat'
p2375
sg1
(g5
S'P\x02\x00\x00'
p2376
tp2377
Rp2378
S'Blind Tiger Russian Imperial Stout'
p2379
sg1
(g5
S'Q\x02\x00\x00'
p2380
tp2381
Rp2382
S'Tallgrass Vanilla Bean Buffalo Sweat - Bourbon Barrel & Cinnamon'
p2383
sg1
(g5
S'R\x02\x00\x00'
p2384
tp2385
Rp2386
S'Free State Winterfest IPA'
p2387
sg1
(g5
S'S\x02\x00\x00'
p2388
tp2389
Rp2390
S'Free State Octoberfest'
p2391
sg1
(g5
S'T\x02\x00\x00'
p2392
tp2393
Rp2394
S'Tallgrass Wooden Rooster'
p2395
sg1
(g5
S'U\x02\x00\x00'
p2396
tp2397
Rp2398
S'Free State C4 Imperial Black IPA'
p2399
sg1
(g5
S'V\x02\x00\x00'
p2400
tp2401
Rp2402
S'Madhouse Carpe Diem'
p2403
sg1
(g5
S'W\x02\x00\x00'
p2404
tp2405
Rp2406
S'Tallgrass Big Ricc'
p2407
sg1
(g5
S'X\x02\x00\x00'
p2408
tp2409
Rp2410
S'Tallgrass Ethos IPA'
p2411
sg1
(g5
S'Y\x02\x00\x00'
p2412
tp2413
Rp2414
S'Free State Black Jack Porter'
p2415
sg1
(g5
S'Z\x02\x00\x00'
p2416
tp2417
Rp2418
S'Free State Ironman Imperial Stout'
p2419
sg1
(g5
S'[\x02\x00\x00'
p2420
tp2421
Rp2422
S'Tallgrass Zombie Monkie'
p2423
sg1
(g5
S'\\\x02\x00\x00'
p2424
tp2425
Rp2426
S'Free State Cloud Hopper Imperial IPA'
p2427
sg1
(g5
S']\x02\x00\x00'
p2428
tp2429
Rp2430
S'Free State Old Backus Barleywine'
p2431
sg1
(g5
S'^\x02\x00\x00'
p2432
tp2433
Rp2434
S'Free State Owd Macs Imperial Stout'
p2435
sg1
(g5
S'_\x02\x00\x00'
p2436
tp2437
Rp2438
S'Toppling Goliath Hopsmack!'
p2439
sg1
(g5
S'`\x02\x00\x00'
p2440
tp2441
Rp2442
S'Toppling Goliath Xhops Series - Gamma'
p2443
sg1
(g5
S'a\x02\x00\x00'
p2444
tp2445
Rp2446
S'Toppling Goliath ReGifter Double IPA'
p2447
sg1
(g5
S'b\x02\x00\x00'
p2448
tp2449
Rp2450
S'Toppling Goliath XHops Series - Green'
p2451
sg1
(g5
S'c\x02\x00\x00'
p2452
tp2453
Rp2454
S'Toppling Goliath pseudoSue - Citra Double Dry Hopped'
p2455
sg1
(g5
S'd\x02\x00\x00'
p2456
tp2457
Rp2458
S'Toppling Goliath / Mikkeller Nelson Schmelsson'
p2459
sg1
(g5
S'e\x02\x00\x00'
p2460
tp2461
Rp2462
S'Peace Tree No Coast IPA'
p2463
sg1
(g5
S'f\x02\x00\x00'
p2464
tp2465
Rp2466
S'Toppling Goliath Thresher IPA '
p2467
sg1
(g5
S'g\x02\x00\x00'
p2468
tp2469
Rp2470
S'Toppling Goliath Galaxy Dry Hopped pseudoSue'
p2471
sg1
(g5
S'h\x02\x00\x00'
p2472
tp2473
Rp2474
S'Toppling Goliath Intergalactic Warrior IPA'
p2475
sg1
(g5
S'i\x02\x00\x00'
p2476
tp2477
Rp2478
S'Toppling Goliath Golden Nugget IPA'
p2479
sg1
(g5
S'j\x02\x00\x00'
p2480
tp2481
Rp2482
S'Toppling Goliath XHops Series - Gold'
p2483
sg1
(g5
S'k\x02\x00\x00'
p2484
tp2485
Rp2486
S'Toppling Goliath Light Speed Pale Ale'
p2487
sg1
(g5
S'l\x02\x00\x00'
p2488
tp2489
Rp2490
S'Toppling Goliath Mosaic Dry Hopped pseudoSue'
p2491
sg1
(g5
S'm\x02\x00\x00'
p2492
tp2493
Rp2494
S'Toppling Goliath Sol Hunter Pale Ale'
p2495
sg1
(g5
S'n\x02\x00\x00'
p2496
tp2497
Rp2498
S'Toppling Goliath ZeeLander'
p2499
sg1
(g5
S'o\x02\x00\x00'
p2500
tp2501
Rp2502
S'Toppling Goliath / Tree House David'
p2503
sg1
(g5
S'p\x02\x00\x00'
p2504
tp2505
Rp2506
S'Toppling Goliath Pompeii IPA'
p2507
sg1
(g5
S'q\x02\x00\x00'
p2508
tp2509
Rp2510
S'Toppling Goliath Twisted Galaxy'
p2511
sg1
(g5
S'r\x02\x00\x00'
p2512
tp2513
Rp2514
S'Toppling Goliath Sosus'
p2515
sg1
(g5
S's\x02\x00\x00'
p2516
tp2517
Rp2518
S'Toppling Goliath pseudoSue'
p2519
sg1
(g5
S't\x02\x00\x00'
p2520
tp2521
Rp2522
S'Toppling Goliath King Sue'
p2523
sg1
(g5
S'u\x02\x00\x00'
p2524
tp2525
Rp2526
S'Toppling Goliath Mornin\x8a\x97\xc8 Delight'
p2527
sg1
(g5
S'v\x02\x00\x00'
p2528
tp2529
Rp2530
S'Revolution Gravedigger Billy'
p2531
sg1
(g5
S'w\x02\x00\x00'
p2532
tp2533
Rp2534
S'Half Acre Double Daisy Cutter'
p2535
sg1
(g5
S'x\x02\x00\x00'
p2536
tp2537
Rp2538
S'Revolution Deth\x8a\x97\xc8s Tar'
p2539
sg1
(g5
S'y\x02\x00\x00'
p2540
tp2541
Rp2542
S'Half Acre Beer Hates Astronauts'
p2543
sg1
(g5
S'z\x02\x00\x00'
p2544
tp2545
Rp2546
S'Pipeworks Emerald Grouper '
p2547
sg1
(g5
S'{\x02\x00\x00'
p2548
tp2549
Rp2550
S'Haymarket Indignant Imperial Stout - Bourbon Barrel'
p2551
sg1
(g5
S'|\x02\x00\x00'
p2552
tp2553
Rp2554
S'Haymarket Clare\x8a\x97\xc8s Thirsty Ale'
p2555
sg1
(g5
S'}\x02\x00\x00'
p2556
tp2557
Rp2558
S'Revolution Barrel Aged Institutionalized Barley Wine'
p2559
sg1
(g5
S'~\x02\x00\x00'
p2560
tp2561
Rp2562
S'Pipeworks Unicorn Galaxy Imperial IPA'
p2563
sg1
(g5
S'\x7f\x02\x00\x00'
p2564
tp2565
Rp2566
S'Destihl Dosvidanya Russian Imperial Stout'
p2567
sg1
(g5
S'\x80\x02\x00\x00'
p2568
tp2569
Rp2570
S'Half Acre Galactic Double Daisy Cutter'
p2571
sg1
(g5
S'\x81\x02\x00\x00'
p2572
tp2573
Rp2574
S'Goose Island Bourbon County Stout - Templeton Rye Barrel'
p2575
sg1
(g5
S'\x82\x02\x00\x00'
p2576
tp2577
Rp2578
S'Goose Island Imperial IPA'
p2579
sg1
(g5
S'\x83\x02\x00\x00'
p2580
tp2581
Rp2582
S'Pipeworks Ninja Vs Unicorn Double IPA'
p2583
sg1
(g5
S'\x84\x02\x00\x00'
p2584
tp2585
Rp2586
S'Goose Island Nutulhu'
p2587
sg1
(g5
S'\x85\x02\x00\x00'
p2588
tp2589
Rp2590
S'Pipeworks Crimson Snapper'
p2591
sg1
(g5
S'\x86\x02\x00\x00'
p2592
tp2593
Rp2594
S'Pipeworks Citra Imperial IPA'
p2595
sg1
(g5
S'\x87\x02\x00\x00'
p2596
tp2597
Rp2598
S'Goose Island Night Stalker'
p2599
sg1
(g5
S'\x88\x02\x00\x00'
p2600
tp2601
Rp2602
S'Goose Island Cthulhu'
p2603
sg1
(g5
S'\x89\x02\x00\x00'
p2604
tp2605
Rp2606
S'Goose Island Bourbon County Stout - Regal Rye Barrel'
p2607
sg1
(g5
S'\x8a\x02\x00\x00'
p2608
tp2609
Rp2610
S'Fargo Mighty Red'
p2611
sg1
(g5
S'\x8b\x02\x00\x00'
p2612
tp2613
Rp2614
S'Nebraska Reserve Series Barrel Aged HopAnomaly'
p2615
sg1
(g5
S'\x8c\x02\x00\x00'
p2616
tp2617
Rp2618
S'Nebraska Reserve Series Sexy Betty'
p2619
sg1
(g5
S'\x8d\x02\x00\x00'
p2620
tp2621
Rp2622
S'Nebraska Reserve Series Black Betty Russian Imperial Stout'
p2623
sg1
(g5
S'\x8e\x02\x00\x00'
p2624
tp2625
Rp2626
S'Nebraska New Oak-aged Rye IPA'
p2627
sg1
(g5
S'\x8f\x02\x00\x00'
p2628
tp2629
Rp2630
S'Lucky Bucket Certified Evil 2010'
p2631
sg1
(g5
S'\x90\x02\x00\x00'
p2632
tp2633
Rp2634
S'Great Basin Tectonic Event IPA'
p2635
sg1
(g5
S'\x91\x02\x00\x00'
p2636
tp2637
Rp2638
S'Smuttynose Julio?\x97?s Fashionably Old Ale'
p2639
sg1
(g5
S'\x92\x02\x00\x00'
p2640
tp2641
Rp2642
S'Ramstein Winter Wheat'
p2643
sg1
(g5
S'\x93\x02\x00\x00'
p2644
tp2645
Rp2646
S'Bosque (NM) Scale Tipper IPA'
p2647
sg1
(g5
S'\x94\x02\x00\x00'
p2648
tp2649
Rp2650
S'Grimm Lambo Door'
p2651
sg1
(g5
S'\x95\x02\x00\x00'
p2652
tp2653
Rp2654
S'Wicked Weed White Angel'
p2655
sg1
(g5
S'\x96\x02\x00\x00'
p2656
tp2657
Rp2658
S'Hoppin?\x97? Frog Barrel Aged BORIS Bairille Aois'
p2659
sg1
(g5
S'\x97\x02\x00\x00'
p2660
tp2661
Rp2662
S'Prairie Americana'
p2663
sg1
(g5
S'\x98\x02\x00\x00'
p2664
tp2665
Rp2666
S'Upright Fantasia'
p2667
sg1
(g5
S'\x99\x02\x00\x00'
p2668
tp2669
Rp2670
S'Selins Grove Pumpkin Ale'
p2671
sg1
(g5
S'\x9a\x02\x00\x00'
p2672
tp2673
Rp2674
S'Revival White Electric Coffee Stout'
p2675
sg1
(g5
S'\x9b\x02\x00\x00'
p2676
tp2677
Rp2678
S'Newport Storm Cyclone Series Vlad'
p2679
sg1
(g5
S'\x9c\x02\x00\x00'
p2680
tp2681
Rp2682
S'Union Station Vanilla Bean Porter'
p2683
sg1
(g5
S'\x9d\x02\x00\x00'
p2684
tp2685
Rp2686
S'Trinity Russian Imperial Stout'
p2687
sg1
(g5
S'\x9e\x02\x00\x00'
p2688
tp2689
Rp2690
S'Grey Sail Pour Judgement IPA'
p2691
sg1
(g5
S'\x9f\x02\x00\x00'
p2692
tp2693
Rp2694
S'Narragansett Private Stock Imperial Russian Stout'
p2695
sg1
(g5
S'\xa0\x02\x00\x00'
p2696
tp2697
Rp2698
S'Proclamation Tendril'
p2699
sg1
(g5
S'\xa1\x02\x00\x00'
p2700
tp2701
Rp2702
S'Newport Storm Cyclone Series Zach'
p2703
sg1
(g5
S'\xa2\x02\x00\x00'
p2704
tp2705
Rp2706
S'Narragansett Autocrat Coffee Milk Stout'
p2707
sg1
(g5
S'\xa3\x02\x00\x00'
p2708
tp2709
Rp2710
S'Foolproof Raincloud Porter'
p2711
sg1
(g5
S'\xa4\x02\x00\x00'
p2712
tp2713
Rp2714
S'Union Station Half Day IPA'
p2715
sg1
(g5
S'\xa5\x02\x00\x00'
p2716
tp2717
Rp2718
S'Foolproof Shuckolate'
p2719
sg1
(g5
S'\xa6\x02\x00\x00'
p2720
tp2721
Rp2722
S'Revival Burnsider Pale Ale'
p2723
sg1
(g5
S'\xa7\x02\x00\x00'
p2724
tp2725
Rp2726
S'Proclamation zzzlumber'
p2727
sg1
(g5
S'\xa8\x02\x00\x00'
p2728
tp2729
Rp2730
S'Proclamation Zzzlumber - Barrel-Aged'
p2731
sg1
(g5
S'\xa9\x02\x00\x00'
p2732
tp2733
Rp2734
S'Revival Double Black IPA'
p2735
sg1
(g5
S'\xaa\x02\x00\x00'
p2736
tp2737
Rp2738
S'Trinity Decadence Imperial IPA'
p2739
sg1
(g5
S'\xab\x02\x00\x00'
p2740
tp2741
Rp2742
S'Grey Sail Stargazer Imperial Stout'
p2743
sg1
(g5
S'\xac\x02\x00\x00'
p2744
tp2745
Rp2746
S'Proclamation Derivative Mosaic Hopped Pale Ale'
p2747
sg1
(g5
S'\xad\x02\x00\x00'
p2748
tp2749
Rp2750
S'Foolproof Revery Russian Imperial Stout'
p2751
sg1
(g5
S'\xae\x02\x00\x00'
p2752
tp2753
Rp2754
S'Proclamation Keraterra (Citra/Amarillo)'
p2755
sg1
(g5
S'\xaf\x02\x00\x00'
p2756
tp2757
Rp2758
S'Proclamation Derivative Citra Hopped Pale Ale'
p2759
sg1
(g5
S'\xb0\x02\x00\x00'
p2760
tp2761
Rp2762
S'Proclamation Postcursor'
p2763
sg1
(g5
S'\xb1\x02\x00\x00'
p2764
tp2765
Rp2766
S'Proclamation Derivative Galaxy Hopped Pale Ale'
p2767
sg1
(g5
S'\xb2\x02\x00\x00'
p2768
tp2769
Rp2770
S'Grey Sail Captain?\x97?s Daughter'
p2771
sg1
(g5
S'\xb3\x02\x00\x00'
p2772
tp2773
Rp2774
S'Tr??egs Nugget Nectar Ale'
p2775
sg1
(g5
S'\xb4\x02\x00\x00'
p2776
tp2777
Rp2778
S'Forest & Main Paradisaea'
p2779
sg1
(g5
S'\xb5\x02\x00\x00'
p2780
tp2781
Rp2782
S'Tired Hands Virgins & Diamonds'
p2783
sg1
(g5
S'\xb6\x02\x00\x00'
p2784
tp2785
Rp2786
S'Selins Grove Bourbon St. Fillans Wee Heavy'
p2787
sg1
(g5
S'\xb7\x02\x00\x00'
p2788
tp2789
Rp2790
S'Bullfrog Le Roar Grrrz Kriek'
p2791
sg1
(g5
S'\xb8\x02\x00\x00'
p2792
tp2793
Rp2794
S'Bullfrog Le Roar Grrrz Aardbei'
p2795
sg1
(g5
S'\xb9\x02\x00\x00'
p2796
tp2797
Rp2798
S'Bullfrog Le Roar Grrrz Plum'
p2799
sg1
(g5
S'\xba\x02\x00\x00'
p2800
tp2801
Rp2802
S'Bullfrog Le Roar Grrrz'
p2803
sg1
(g5
S'\xbb\x02\x00\x00'
p2804
tp2805
Rp2806
S'Tired Hands Pineal IPA'
p2807
sg1
(g5
S'\xbc\x02\x00\x00'
p2808
tp2809
Rp2810
S'Tired Hands We Are All Infinite Energy Vibrating at the Same Frequency'
p2811
sg1
(g5
S'\xbd\x02\x00\x00'
p2812
tp2813
Rp2814
S'Voodoo The K13'
p2815
sg1
(g5
S'\xbe\x02\x00\x00'
p2816
tp2817
Rp2818
S'Voodoo Grande Negro Voodoo Papi (Laird?\x97?s Apple Brandy)'
p2819
sg1
(g5
S'\xbf\x02\x00\x00'
p2820
tp2821
Rp2822
S'Bullfrog Le Roar Grrrz Apricot '
p2823
sg1
(g5
S'\xc0\x02\x00\x00'
p2824
tp2825
Rp2826
S'Tired Hands Sticky Drippy Crystals'
p2827
sg1
(g5
S'\xc1\x02\x00\x00'
p2828
tp2829
Rp2830
S'Victory Old Horizontal'
p2831
sg1
(g5
S'\xc2\x02\x00\x00'
p2832
tp2833
Rp2834
S'Victory Storm King Imperial Stout'
p2835
sg1
(g5
S'\xc3\x02\x00\x00'
p2836
tp2837
Rp2838
S'Pizza Boy Sunny Side Up - Double Coffee'
p2839
sg1
(g5
S'\xc4\x02\x00\x00'
p2840
tp2841
Rp2842
S'Bullfrog Et Tu Brut'
p2843
sg1
(g5
S'\xc5\x02\x00\x00'
p2844
tp2845
Rp2846
S'Bullfrog Le Roar Grrrz Druiven'
p2847
sg1
(g5
S'\xc6\x02\x00\x00'
p2848
tp2849
Rp2850
S'Selins Grove The Phoenix Kriek'
p2851
sg1
(g5
S'\xc7\x02\x00\x00'
p2852
tp2853
Rp2854
S'Ottos Bourbon-Barrel Aged Jolly Roger Imperial Stout'
p2855
sg1
(g5
S'\xc8\x02\x00\x00'
p2856
tp2857
Rp2858
S'Voodoo Grande Negro Voodoo Papi (Bourbon Barrel Aged) '
p2859
sg1
(g5
S'\xc9\x02\x00\x00'
p2860
tp2861
Rp2862
S'Voodoo ManBearPig'
p2863
sg1
(g5
S'\xca\x02\x00\x00'
p2864
tp2865
Rp2866
S'Cascade Noyaux'
p2867
sg1
(g5
S'\xcb\x02\x00\x00'
p2868
tp2869
Rp2870
S'Upright Flora Rustica (Barrel Aged)'
p2871
sg1
(g5
S'\xcc\x02\x00\x00'
p2872
tp2873
Rp2874
S'Rogue Double Chocolate Stout'
p2875
sg1
(g5
S'\xcd\x02\x00\x00'
p2876
tp2877
Rp2878
S'Hair of the Dog Otto from the Wood'
p2879
sg1
(g5
S'\xce\x02\x00\x00'
p2880
tp2881
Rp2882
S'De Garde / Side Project Saison Desay - Chardonnay Barrel'
p2883
sg1
(g5
S'\xcf\x02\x00\x00'
p2884
tp2885
Rp2886
S'De Garde Cherry Raz Bu'
p2887
sg1
(g5
S'\xd0\x02\x00\x00'
p2888
tp2889
Rp2890
S'De Garde The Anniversary'
p2891
sg1
(g5
S'\xd1\x02\x00\x00'
p2892
tp2893
Rp2894
S'Hair of the Dog Doggie Claws (2003-)'
p2895
sg1
(g5
S'\xd2\x02\x00\x00'
p2896
tp2897
Rp2898
S'De Garde Imperial Black Raz Bu'
p2899
sg1
(g5
S'\xd3\x02\x00\x00'
p2900
tp2901
Rp2902
S'Deschutes Black Butte XXVIII'
p2903
sg1
(g5
S'\xd4\x02\x00\x00'
p2904
tp2905
Rp2906
S'Hair of the Dog Cherry Adam from the Wood'
p2907
sg1
(g5
S'\xd5\x02\x00\x00'
p2908
tp2909
Rp2910
S'Pelican Mother of all Storms'
p2911
sg1
(g5
S'\xd6\x02\x00\x00'
p2912
tp2913
Rp2914
S'Boneyard Notorious IPA3'
p2915
sg1
(g5
S'\xd7\x02\x00\x00'
p2916
tp2917
Rp2918
S'De Garde The Broken Truck'
p2919
sg1
(g5
S'\xd8\x02\x00\x00'
p2920
tp2921
Rp2922
S'Logsdon Peche ?\x97?n Brett'
p2923
sg1
(g5
S'\xd9\x02\x00\x00'
p2924
tp2925
Rp2926
S'Block 15 Turbulent Consequence: P??che'
p2927
sg1
(g5
S'\xda\x02\x00\x00'
p2928
tp2929
Rp2930
S'Deschutes The Abyss - Rye Whiskey'
p2931
sg1
(g5
S'\xdb\x02\x00\x00'
p2932
tp2933
Rp2934
S'Hair of the Dog Adam from the Wood'
p2935
sg1
(g5
S'\xdc\x02\x00\x00'
p2936
tp2937
Rp2938
S'De Garde Nectarine Premiere'
p2939
sg1
(g5
S'\xdd\x02\x00\x00'
p2940
tp2941
Rp2942
S'Hair of the Dog Fred from the Wood'
p2943
sg1
(g5
S'\xde\x02\x00\x00'
p2944
tp2945
Rp2946
S'De Garde Imperial Purple Raz Bu'
p2947
sg1
(g5
S'\xdf\x02\x00\x00'
p2948
tp2949
Rp2950
S'De Garde The Peach'
p2951
sg1
(g5
S'\xe0\x02\x00\x00'
p2952
tp2953
Rp2954
S'Hair of the Dog Adam'
p2955
sg1
(g5
S'\xe1\x02\x00\x00'
p2956
tp2957
Rp2958
S'Deschutes The Abyss'
p2959
sg1
(g5
S'\xe2\x02\x00\x00'
p2960
tp2961
Rp2962
S'Prairie ?\x97?Merica'
p2963
sg1
(g5
S'\xe3\x02\x00\x00'
p2964
tp2965
Rp2966
S'Prairie Funky Gold Amarillo'
p2967
sg1
(g5
S'\xe4\x02\x00\x00'
p2968
tp2969
Rp2970
S'Prairie Okie'
p2971
sg1
(g5
S'\xe5\x02\x00\x00'
p2972
tp2973
Rp2974
S'Prairie Funky Gold Simcoe'
p2975
sg1
(g5
S'\xe6\x02\x00\x00'
p2976
tp2977
Rp2978
S'Anthem Pappy Burleson'
p2979
sg1
(g5
S'\xe7\x02\x00\x00'
p2980
tp2981
Rp2982
S'Roughtail Hoptometrist Double India Pale Ale'
p2983
sg1
(g5
S'\xe8\x02\x00\x00'
p2984
tp2985
Rp2986
S'Prairie Wine Barrel Noir'
p2987
sg1
(g5
S'\xe9\x02\x00\x00'
p2988
tp2989
Rp2990
S'Prairie Prairie Noir'
p2991
sg1
(g5
S'\xea\x02\x00\x00'
p2992
tp2993
Rp2994
S'Prairie Pirate Noir'
p2995
sg1
(g5
S'\xeb\x02\x00\x00'
p2996
tp2997
Rp2998
S'Prairie Prairie Hop'
p2999
sg1
(g5
S'\xec\x02\x00\x00'
p3000
tp3001
Rp3002
S'Prairie Funky Gold Mosaic'
p3003
sg1
(g5
S'\xed\x02\x00\x00'
p3004
tp3005
Rp3006
S'Prairie Brett C.'
p3007
sg1
(g5
S'\xee\x02\x00\x00'
p3008
tp3009
Rp3010
S'American Solera Foeder Gold'
p3011
sg1
(g5
S'\xef\x02\x00\x00'
p3012
tp3013
Rp3014
S'Prairie Coffee Okie'
p3015
sg1
(g5
S'\xf0\x02\x00\x00'
p3016
tp3017
Rp3018
S'Prairie Paradise'
p3019
sg1
(g5
S'\xf1\x02\x00\x00'
p3020
tp3021
Rp3022
S'Prairie Bomb! - Balcones Barrel Aged'
p3023
sg1
(g5
S'\xf2\x02\x00\x00'
p3024
tp3025
Rp3026
S'American Solera Foeder Cerise'
p3027
sg1
(g5
S'\xf3\x02\x00\x00'
p3028
tp3029
Rp3030
S'Prairie Fred?\x97?s Blend'
p3031
sg1
(g5
S'\xf4\x02\x00\x00'
p3032
tp3033
Rp3034
S'Prairie / Evil Twin Bible Belt'
p3035
sg1
(g5
S'\xf5\x02\x00\x00'
p3036
tp3037
Rp3038
S'Prairie Pirate Bomb!'
p3039
sg1
(g5
S'\xf6\x02\x00\x00'
p3040
tp3041
Rp3042
S'Prairie Bomb! - Barrel Aged'
p3043
sg1
(g5
S'\xf7\x02\x00\x00'
p3044
tp3045
Rp3046
S'Prairie Bomb!'
p3047
sg1
(g5
S'\xf8\x02\x00\x00'
p3048
tp3049
Rp3050
S'Prairie Apple Brandy Barrel Noir'
p3051
sg1
(g5
S'\xf9\x02\x00\x00'
p3052
tp3053
Rp3054
S'Hoppin?\x97? Frog Rocky Mountain BORIS'
p3055
sg1
(g5
S'\xfa\x02\x00\x00'
p3056
tp3057
Rp3058
S'Hoppin?\x97? Frog TORIS The Tyrant: Triple Oatmeal Stout'
p3059
sg1
(g5
S'\xfb\x02\x00\x00'
p3060
tp3061
Rp3062
S'Columbus Bodhi'
p3063
sg1
(g5
S'\xfc\x02\x00\x00'
p3064
tp3065
Rp3066
S'Great Lakes Chillwave Double IPA'
p3067
sg1
(g5
S'\xfd\x02\x00\x00'
p3068
tp3069
Rp3070
S'Jackie O?\x97?s Bourbon Barrel Oil Of Aphrodite'
p3071
sg1
(g5
S'\xfe\x02\x00\x00'
p3072
tp3073
Rp3074
S'Fat Head?\x97?s Head Hunter IPA'
p3075
sg1
(g5
S'\xff\x02\x00\x00'
p3076
tp3077
Rp3078
S'Jackie O?\x97?s Coffee Bourbon Barrel Oil Of Aphrodite'
p3079
sg1
(g5
S'\x00\x03\x00\x00'
p3080
tp3081
Rp3082
S'Hoppin?\x97? Frog BORIS Batch #200'
p3083
sg1
(g5
S'\x01\x03\x00\x00'
p3084
tp3085
Rp3086
S'Warped Wing Baltic Argonaut'
p3087
sg1
(g5
S'\x02\x03\x00\x00'
p3088
tp3089
Rp3090
S'Jackie O?\x97?s Bourbon Barrel Champion Ground'
p3091
sg1
(g5
S'\x03\x03\x00\x00'
p3092
tp3093
Rp3094
S'Jackie O?\x97?s Bourbon Barrel Dark Apparition'
p3095
sg1
(g5
S'\x04\x03\x00\x00'
p3096
tp3097
Rp3098
S'Hoppin?\x97? Frog Cafe BORIS'
p3099
sg1
(g5
S'\x05\x03\x00\x00'
p3100
tp3101
Rp3102
S'Fat Head?\x97?s Hop JuJu Imperial IPA'
p3103
sg1
(g5
S'\x06\x03\x00\x00'
p3104
tp3105
Rp3106
S'Jackie O?\x97?s Bourbon Barrel Oro Negro'
p3107
sg1
(g5
S'\x07\x03\x00\x00'
p3108
tp3109
Rp3110
S'Hoppin?\x97? Frog Barrel Aged BORIS Royale'
p3111
sg1
(g5
S'\x08\x03\x00\x00'
p3112
tp3113
Rp3114
S'Hoppin?\x97? Frog Barrel Aged BORIS Van Wink'
p3115
sg1
(g5
S'\t\x03\x00\x00'
p3116
tp3117
Rp3118
S'Jackie O?\x97?s Vanilla & Coffee Bean Bourbon Barrel Dark Apparition'
p3119
sg1
(g5
S'\n\x03\x00\x00'
p3120
tp3121
Rp3122
S'Great Lakes Blackout Stout - Barrel-Aged '
p3123
sg1
(g5
S'\x0b\x03\x00\x00'
p3124
tp3125
Rp3126
S'Jackie O?\x97?s Iced Coffee Apparition'
p3127
sg1
(g5
S'\x0c\x03\x00\x00'
p3128
tp3129
Rp3130
S'Thirsty Dog Siberian Night Imperial Stout'
p3131
sg1
(g5
S'\r\x03\x00\x00'
p3132
tp3133
Rp3134
S'Hoppin?\x97? Frog BORIS The Crusher'
p3135
sg1
(g5
S'\x0e\x03\x00\x00'
p3136
tp3137
Rp3138
S'Hoppin?\x97? Frog DORIS The Destroyer'
p3139
sg1
(g5
S'\x0f\x03\x00\x00'
p3140
tp3141
Rp3142
S'Hoppin?\x97? Frog Barrel Aged DORIS The Destroyer'
p3143
sg1
(g5
S'\x10\x03\x00\x00'
p3144
tp3145
Rp3146
S'Hoppin?\x97? Frog Barrel Aged BORIS The Crusher '
p3147
sg1
(g5
S'\x11\x03\x00\x00'
p3148
tp3149
Rp3150
S'Fargo Super Green'
p3151
sg1
(g5
S'\x12\x03\x00\x00'
p3152
tp3153
Rp3154
S'Laughing Sun Cosmic Owl Belgian Pale Ale'
p3155
sg1
(g5
S'\x13\x03\x00\x00'
p3156
tp3157
Rp3158
S'Pointe of View Winery Dry Apple Wine'
p3159
sg1
(g5
S'\x14\x03\x00\x00'
p3160
tp3161
Rp3162
S'Pointe of View Winery H2BC'
p3163
sg1
(g5
S'\x15\x03\x00\x00'
p3164
tp3165
Rp3166
S'Fargo Original Pale Lager'
p3167
sg1
(g5
S'\x16\x03\x00\x00'
p3168
tp3169
Rp3170
S'Pointe of View Winery Semi-Dry Honey Wine'
p3171
sg1
(g5
S'\x17\x03\x00\x00'
p3172
tp3173
Rp3174
S'Maple River Winery Country Crabapple Wine'
p3175
sg1
(g5
S'\x18\x03\x00\x00'
p3176
tp3177
Rp3178
S'Pointe of View Winery Sweet Honey Wine '
p3179
sg1
(g5
S'\x19\x03\x00\x00'
p3180
tp3181
Rp3182
S'Fargo Stone?\x97?s Throw Scottish Ale'
p3183
sg1
(g5
S'\x1a\x03\x00\x00'
p3184
tp3185
Rp3186
S'Pointe of View Winery Honey Wine with Elderflowers'
p3187
sg1
(g5
S'\x1b\x03\x00\x00'
p3188
tp3189
Rp3190
S'Maple River Winery Honey Apple Wine'
p3191
sg1
(g5
S'\x1c\x03\x00\x00'
p3192
tp3193
Rp3194
S'Fargo Wind Swept Belgian Witbier'
p3195
sg1
(g5
S'\x1d\x03\x00\x00'
p3196
tp3197
Rp3198
S'Laughing Sun Strawberry Wheat'
p3199
sg1
(g5
S'\x1e\x03\x00\x00'
p3200
tp3201
Rp3202
S'Fargo Roustabout Stout'
p3203
sg1
(g5
S'\x1f\x03\x00\x00'
p3204
tp3205
Rp3206
S'Fargo O?\x97?Fest Oktoberfest Lager'
p3207
sg1
(g5
S' \x03\x00\x00'
p3208
tp3209
Rp3210
S'Laughing Sun Sinister Pear'
p3211
sg1
(g5
S'!\x03\x00\x00'
p3212
tp3213
Rp3214
S'Pointe of View Winery Apple Wine'
p3215
sg1
(g5
S'"\x03\x00\x00'
p3216
tp3217
Rp3218
S'Fargo Wood Chipper IPA'
p3219
sg1
(g5
S'#\x03\x00\x00'
p3220
tp3221
Rp3222
S'Maple River Winery Honeycomb Plum'
p3223
sg1
(g5
S'$\x03\x00\x00'
p3224
tp3225
Rp3226
S'Laughing Sun Black Shox Porter'
p3227
sg1
(g5
S'%\x03\x00\x00'
p3228
tp3229
Rp3230
S'Fargo Sodbuster Porter'
p3231
sg1
(g5
S'&\x03\x00\x00'
p3232
tp3233
Rp3234
S'Pointe of View Winery Viking Deed'
p3235
sg1
(g5
S"'\x03\x00\x00"
p3236
tp3237
Rp3238
S'Laughing Sun Feast Like a Sultan IPA'
p3239
sg1
(g5
S'(\x03\x00\x00'
p3240
tp3241
Rp3242
S'Fargo Iron Horse Pale Ale'
p3243
sg1
(g5
S')\x03\x00\x00'
p3244
tp3245
Rp3246
S'Wicked Weed Montmaretto (Canvas Series)'
p3247
sg1
(g5
S'*\x03\x00\x00'
p3248
tp3249
Rp3250
S'Foothills Seeing Double IPA'
p3251
sg1
(g5
S'+\x03\x00\x00'
p3252
tp3253
Rp3254
S'Highland Black Watch Double Chocolate Milk Stout'
p3255
sg1
(g5
S',\x03\x00\x00'
p3256
tp3257
Rp3258
S'Wicked Weed Framboos Morte'
p3259
sg1
(g5
S'-\x03\x00\x00'
p3260
tp3261
Rp3262
S'Pisgah Valdez'
p3263
sg1
(g5
S'.\x03\x00\x00'
p3264
tp3265
Rp3266
S'Foothills Baltic Porter'
p3267
sg1
(g5
S'/\x03\x00\x00'
p3268
tp3269
Rp3270
S'NoDa Hop, Drop ?\x97?n Roll IPA'
p3271
sg1
(g5
S'0\x03\x00\x00'
p3272
tp3273
Rp3274
S'Wicked Weed Angel of Darkness'
p3275
sg1
(g5
S'1\x03\x00\x00'
p3276
tp3277
Rp3278
S'Wicked Weed Pernicious IPA'
p3279
sg1
(g5
S'2\x03\x00\x00'
p3280
tp3281
Rp3282
S'Wicked Weed Bramble Barrel'
p3283
sg1
(g5
S'3\x03\x00\x00'
p3284
tp3285
Rp3286
S'Wicked Weed Ruffian Imperial Black IPA'
p3287
sg1
(g5
S'4\x03\x00\x00'
p3288
tp3289
Rp3290
S'Wicked Weed Freak Of Nature Double IPA'
p3291
sg1
(g5
S'5\x03\x00\x00'
p3292
tp3293
Rp3294
S'Wicked Weed M??nage-a-Freak'
p3295
sg1
(g5
S'6\x03\x00\x00'
p3296
tp3297
Rp3298
S'Wicked Weed Cherry Go Lightly'
p3299
sg1
(g5
S'7\x03\x00\x00'
p3300
tp3301
Rp3302
S'Wicked Weed Golden Angel'
p3303
sg1
(g5
S'8\x03\x00\x00'
p3304
tp3305
Rp3306
S'Wicked Weed Gar??on de Ferme'
p3307
sg1
(g5
S'9\x03\x00\x00'
p3308
tp3309
Rp3310
S'Wicked Weed Medora Blackberry Raspberry Sour'
p3311
sg1
(g5
S':\x03\x00\x00'
p3312
tp3313
Rp3314
S'Foothills Barrel Aged Sexual Chocolate Imperial Stout'
p3315
sg1
(g5
S';\x03\x00\x00'
p3316
tp3317
Rp3318
S'Wicked Weed Red Angel '
p3319
sg1
(g5
S'<\x03\x00\x00'
p3320
tp3321
Rp3322
S'Foothills Sexual Chocolate Imperial Stout'
p3323
sg1
(g5
S'=\x03\x00\x00'
p3324
tp3325
Rp3326
S'Foothills / Duck-Rabbit / Olde Hickory Olde Rabbit?\x97?s Foot'
p3327
sg1
(g5
S'>\x03\x00\x00'
p3328
tp3329
Rp3330
S'The Duck-Rabbit Baltic Porter'
p3331
sg1
(g5
S'?\x03\x00\x00'
p3332
tp3333
Rp3334
S'Wicked Weed Dark Age Bourbon Stout'
p3335
sg1
(g5
S'@\x03\x00\x00'
p3336
tp3337
Rp3338
S'Olde Hickory The Event Horizon'
p3339
sg1
(g5
S'A\x03\x00\x00'
p3340
tp3341
Rp3342
S'Southern Tier Blackwater Series: Mokah'
p3343
sg1
(g5
S'B\x03\x00\x00'
p3344
tp3345
Rp3346
S'Evil Twin Auld Yin'
p3347
sg1
(g5
S'C\x03\x00\x00'
p3348
tp3349
Rp3350
S'Brooklyn Black Ops'
p3351
sg1
(g5
S'D\x03\x00\x00'
p3352
tp3353
Rp3354
S'Southern Tier Oaked Pumking'
p3355
sg1
(g5
S'E\x03\x00\x00'
p3356
tp3357
Rp3358
S'Other Half Double Mosaic Dream'
p3359
sg1
(g5
S'F\x03\x00\x00'
p3360
tp3361
Rp3362
S'Evil Twin Imperial Doughnut Break'
p3363
sg1
(g5
S'G\x03\x00\x00'
p3364
tp3365
Rp3366
S'Other Half Mosaic'
p3367
sg1
(g5
S'H\x03\x00\x00'
p3368
tp3369
Rp3370
S'Evil Twin Imperial Biscotti Break Raspberry Umami'
p3371
sg1
(g5
S'I\x03\x00\x00'
p3372
tp3373
Rp3374
S'Brooklyn Black Chocolate Stout'
p3375
sg1
(g5
S'J\x03\x00\x00'
p3376
tp3377
Rp3378
S'Southern Tier Imperial Oat'
p3379
sg1
(g5
S'K\x03\x00\x00'
p3380
tp3381
Rp3382
S'Captain Lawrence Rosso e Marrone'
p3383
sg1
(g5
S'L\x03\x00\x00'
p3384
tp3385
Rp3386
S'Evil Twin Even More Jesus Port'
p3387
sg1
(g5
S'M\x03\x00\x00'
p3388
tp3389
Rp3390
S'Evil Twin Imperial Biscotti Break - DeCicco Version'
p3391
sg1
(g5
S'N\x03\x00\x00'
p3392
tp3393
Rp3394
S'Evil Twin A??n M??s Caf?? Jes??s'
p3395
sg1
(g5
S'O\x03\x00\x00'
p3396
tp3397
Rp3398
S'Evil Twin A??n M??s a Jes??s'
p3399
sg1
(g5
S'P\x03\x00\x00'
p3400
tp3401
Rp3402
S'Captain Lawrence Cuvee de Castleton'
p3403
sg1
(g5
S'Q\x03\x00\x00'
p3404
tp3405
Rp3406
S'Southern Tier Blackwater Series: Choklat'
p3407
sg1
(g5
S'R\x03\x00\x00'
p3408
tp3409
Rp3410
S'Evil Twin Imperial Biscotti Break'
p3411
sg1
(g5
S'S\x03\x00\x00'
p3412
tp3413
Rp3414
S'Evil Twin Even More Jesus'
p3415
sg1
(g5
S'T\x03\x00\x00'
p3416
tp3417
Rp3418
S'Evil Twin Pappy?\x97?s Imperial Biscotti Break'
p3419
sg1
(g5
S'U\x03\x00\x00'
p3420
tp3421
Rp3422
S'Southampton Imperial Russian Stout'
p3423
sg1
(g5
S'V\x03\x00\x00'
p3424
tp3425
Rp3426
S'Evil Twin Imperial Biscotti Break - Bourbon Barrel'
p3427
sg1
(g5
S'W\x03\x00\x00'
p3428
tp3429
Rp3430
S'La Cumbre La Roja Grande'
p3431
sg1
(g5
S'X\x03\x00\x00'
p3432
tp3433
Rp3434
S'La Cumbre Father Nelson'
p3435
sg1
(g5
S'Y\x03\x00\x00'
p3436
tp3437
Rp3438
S'Evil Twin Double Barrel Jesus'
p3439
sg1
(g5
S'Z\x03\x00\x00'
p3440
tp3441
Rp3442
S'Evil Twin Pappy?\x97?s Even More Jesus'
p3443
sg1
(g5
S'[\x03\x00\x00'
p3444
tp3445
Rp3446
S'Chama River Imperial Red'
p3447
sg1
(g5
S'\\\x03\x00\x00'
p3448
tp3449
Rp3450
S'Santa Fe Barrel Aged Sour State Pen Porter'
p3451
sg1
(g5
S']\x03\x00\x00'
p3452
tp3453
Rp3454
S'Marble Imperial Red Ale'
p3455
sg1
(g5
S'^\x03\x00\x00'
p3456
tp3457
Rp3458
S'Marble India Pale Ale'
p3459
sg1
(g5
S'_\x03\x00\x00'
p3460
tp3461
Rp3462
S'La Cumbre El Negro RIS'
p3463
sg1
(g5
S'`\x03\x00\x00'
p3464
tp3465
Rp3466
S'Santa Fe Los Innovadores Kriek'
p3467
sg1
(g5
S'a\x03\x00\x00'
p3468
tp3469
Rp3470
S'Marble D.I.P.A.'
p3471
sg1
(g5
S'b\x03\x00\x00'
p3472
tp3473
Rp3474
S'Marble Reserve Ale'
p3475
sg1
(g5
S'c\x03\x00\x00'
p3476
tp3477
Rp3478
S'Santa Fe Wild Ale #6 (Bordeaux Series)   '
p3479
sg1
(g5
S'd\x03\x00\x00'
p3480
tp3481
Rp3482
S'Chama River Dangerous Intensions'
p3483
sg1
(g5
S'e\x03\x00\x00'
p3484
tp3485
Rp3486
S'Santa Fe State Pen Imperial Porter'
p3487
sg1
(g5
S'f\x03\x00\x00'
p3488
tp3489
Rp3490
S'Chama River Anastasia Wine Barrel Aged Russian Imperial Stout'
p3491
sg1
(g5
S'g\x03\x00\x00'
p3492
tp3493
Rp3494
S'La Cumbre Red Ryeot'
p3495
sg1
(g5
S'h\x03\x00\x00'
p3496
tp3497
Rp3498
S'La Cumbre Acclimated IPA'
p3499
sg1
(g5
S'i\x03\x00\x00'
p3500
tp3501
Rp3502
S'Santa Fe Imperial Java Stout'
p3503
sg1
(g5
S'j\x03\x00\x00'
p3504
tp3505
Rp3506
S'Marble Imperial Stout'
p3507
sg1
(g5
S'k\x03\x00\x00'
p3508
tp3509
Rp3510
S'Marble Bourbon Barrel-Aged Imperial Stout'
p3511
sg1
(g5
S'l\x03\x00\x00'
p3512
tp3513
Rp3514
S'La Cumbre Cafe Con Leche'
p3515
sg1
(g5
S'm\x03\x00\x00'
p3516
tp3517
Rp3518
S'La Cumbre Malpais Stout'
p3519
sg1
(g5
S'n\x03\x00\x00'
p3520
tp3521
Rp3522
S'La Cumbre Project Dank'
p3523
sg1
(g5
S'o\x03\x00\x00'
p3524
tp3525
Rp3526
S'La Cumbre Elevated IPA'
p3527
sg1
(g5
S'p\x03\x00\x00'
p3528
tp3529
Rp3530
S'La Cumbre Full Nelson'
p3531
sg1
(g5
S'q\x03\x00\x00'
p3532
tp3533
Rp3534
S'Kane Silent Nights'
p3535
sg1
(g5
S'r\x03\x00\x00'
p3536
tp3537
Rp3538
S'Carton Epitome'
p3539
sg1
(g5
S's\x03\x00\x00'
p3540
tp3541
Rp3542
S'Carton 077XX'
p3543
sg1
(g5
S't\x03\x00\x00'
p3544
tp3545
Rp3546
S'Triumph Jewish Rye Beer'
p3547
sg1
(g5
S'u\x03\x00\x00'
p3548
tp3549
Rp3550
S'Triumph Imperial Stout'
p3551
sg1
(g5
S'v\x03\x00\x00'
p3552
tp3553
Rp3554
S'Kane Overhead'
p3555
sg1
(g5
S'w\x03\x00\x00'
p3556
tp3557
Rp3558
S'Flying Fish Exit 16 WE Wild Rice Double IPA'
p3559
sg1
(g5
S'x\x03\x00\x00'
p3560
tp3561
Rp3562
S'Triumph Coffee & Cream Stout'
p3563
sg1
(g5
S'y\x03\x00\x00'
p3564
tp3565
Rp3566
S'Harvest Moon Oceanus Procellarum'
p3567
sg1
(g5
S'z\x03\x00\x00'
p3568
tp3569
Rp3570
S'Melovino Southern Berry'
p3571
sg1
(g5
S'{\x03\x00\x00'
p3572
tp3573
Rp3574
S'Ramstein Eis Storm Eisbock'
p3575
sg1
(g5
S'|\x03\x00\x00'
p3576
tp3577
Rp3578
S'Carton Dune Fruit'
p3579
sg1
(g5
S'}\x03\x00\x00'
p3580
tp3581
Rp3582
S'Kane Hop Lab #9 - Citra Pale Ale'
p3583
sg1
(g5
S'~\x03\x00\x00'
p3584
tp3585
Rp3586
S'Kane A Night to End All Dawns - Coffee'
p3587
sg1
(g5
S'\x7f\x03\x00\x00'
p3588
tp3589
Rp3590
S'Alba Vineyard Forbidden'
p3591
sg1
(g5
S'\x80\x03\x00\x00'
p3592
tp3593
Rp3594
S'Kane A Night to End All Dawns'
p3595
sg1
(g5
S'\x81\x03\x00\x00'
p3596
tp3597
Rp3598
S'Kane Mexican Brunch'
p3599
sg1
(g5
S'\x82\x03\x00\x00'
p3600
tp3601
Rp3602
S'Kane Head High'
p3603
sg1
(g5
S'\x83\x03\x00\x00'
p3604
tp3605
Rp3606
S'Triumph Rauchweizen'
p3607
sg1
(g5
S'\x84\x03\x00\x00'
p3608
tp3609
Rp3610
S'Carton Shipwreck Porter'
p3611
sg1
(g5
S'\x85\x03\x00\x00'
p3612
tp3613
Rp3614
S'Kane A Night to End All Dawns - Cacao'
p3615
sg1
(g5
S'\x86\x03\x00\x00'
p3616
tp3617
Rp3618
S'Kane Sunday Brunch'
p3619
sg1
(g5
S'\x87\x03\x00\x00'
p3620
tp3621
Rp3622
S'Kane A Night to End All Dawns - Vanilla Bean'
p3623
sg1
(g5
S'\x88\x03\x00\x00'
p3624
tp3625
Rp3626
S'Kane A Night To End All Dawns - Coconut'
p3627
sg1
(g5
S'\x89\x03\x00\x00'
p3628
tp3629
Rp3630
S'Stoneface Mozaccalypse'
p3631
sg1
(g5
S'\x8a\x03\x00\x00'
p3632
tp3633
Rp3634
S'603 Granite Stout'
p3635
sg1
(g5
S'\x8b\x03\x00\x00'
p3636
tp3637
Rp3638
S'Kelsen Vendel Imperial Stout'
p3639
sg1
(g5
S'\x8c\x03\x00\x00'
p3640
tp3641
Rp3642
S'Deciduous Cumulation'
p3643
sg1
(g5
S'\x8d\x03\x00\x00'
p3644
tp3645
Rp3646
S'Stoneface RIS - Bourbon Barrel Aged'
p3647
sg1
(g5
S'\x8e\x03\x00\x00'
p3648
tp3649
Rp3650
S'Deciduous Lambent'
p3651
sg1
(g5
S'\x8f\x03\x00\x00'
p3652
tp3653
Rp3654
S'Smuttynose Smuttlabs Shebang'
p3655
sg1
(g5
S'\x90\x03\x00\x00'
p3656
tp3657
Rp3658
S'Smuttynose Big Beer Series: Rocky Road Stout'
p3659
sg1
(g5
S'\x91\x03\x00\x00'
p3660
tp3661
Rp3662
S'Stoneface IPA'
p3663
sg1
(g5
S'\x92\x03\x00\x00'
p3664
tp3665
Rp3666
S'Stoneface RIS'
p3667
sg1
(g5
S'\x93\x03\x00\x00'
p3668
tp3669
Rp3670
S'White Birch Nyx'
p3671
sg1
(g5
S'\x94\x03\x00\x00'
p3672
tp3673
Rp3674
S'Deciduous Renascence'
p3675
sg1
(g5
S'\x95\x03\x00\x00'
p3676
tp3677
Rp3678
S'Stoneface Porter'
p3679
sg1
(g5
S'\x96\x03\x00\x00'
p3680
tp3681
Rp3682
S'Portsmouth Royal Impy Stout'
p3683
sg1
(g5
S'\x97\x03\x00\x00'
p3684
tp3685
Rp3686
S'Portsmouth Barleywine'
p3687
sg1
(g5
S'\x98\x03\x00\x00'
p3688
tp3689
Rp3690
S'Stoneface Hopulization'
p3691
sg1
(g5
S'\x99\x03\x00\x00'
p3692
tp3693
Rp3694
S'Smuttynose Big A IPA'
p3695
sg1
(g5
S'\x9a\x03\x00\x00'
p3696
tp3697
Rp3698
S'Smuttynose Robust Porter'
p3699
sg1
(g5
S'\x9b\x03\x00\x00'
p3700
tp3701
Rp3702
S'Moonlight Meadery Kurt?\x97?s Apple Pie'
p3703
sg1
(g5
S'\x9c\x03\x00\x00'
p3704
tp3705
Rp3706
S'Moonlight Meadery Destiny'
p3707
sg1
(g5
S'\x9d\x03\x00\x00'
p3708
tp3709
Rp3710
S'Great Basin Hop Head Ale'
p3711
sg1
(g5
S'\x9e\x03\x00\x00'
p3712
tp3713
Rp3714
S'Smuttynose Smuttlabs Apple Brandy Barrel Aged Gravitation'
p3715
sg1
(g5
S'\x9f\x03\x00\x00'
p3716
tp3717
Rp3718
S'Smuttynose Smuttlabs Imperial Stout'
p3719
sg1
(g5
S'\xa0\x03\x00\x00'
p3720
tp3721
Rp3722
S'Smuttynose Big Beer Series: Imperial Stout'
p3723
sg1
(g5
S'\xa1\x03\x00\x00'
p3724
tp3725
Rp3726
S'Smuttynose Baltic Porter'
p3727
sg1
(g5
S'\xa2\x03\x00\x00'
p3728
tp3729
Rp3730
S'Triple 7 Marker Pale Ale'
p3731
sg1
(g5
S'\xa3\x03\x00\x00'
p3732
tp3733
Rp3734
S'Joseph James I?\x97?m Out Imperial Stout'
p3735
sg1
(g5
S'\xa4\x03\x00\x00'
p3736
tp3737
Rp3738
S'Silver Peak Peavine Porter'
p3739
sg1
(g5
S'\xa5\x03\x00\x00'
p3740
tp3741
Rp3742
S'Joseph James 6th Anniversary Barrel-aged Rye Wine'
p3743
sg1
(g5
S'\xa6\x03\x00\x00'
p3744
tp3745
Rp3746
S'Tenaya Creek Tandem Double India Pale Ale'
p3747
sg1
(g5
S'\xa7\x03\x00\x00'
p3748
tp3749
Rp3750
S'Great Basin Outlaw Milk Stout'
p3751
sg1
(g5
S'\xa8\x03\x00\x00'
p3752
tp3753
Rp3754
S'Chicago Hardway IPA'
p3755
sg1
(g5
S'\xa9\x03\x00\x00'
p3756
tp3757
Rp3758
S'Big Dog?\x97?s Dirty Dog IPA'
p3759
sg1
(g5
S'\xaa\x03\x00\x00'
p3760
tp3761
Rp3762
S'Bad Beat Hoppy Times IPA'
p3763
sg1
(g5
S'\xab\x03\x00\x00'
p3764
tp3765
Rp3766
S'Tenaya Creek Hop Ride IPA'
p3767
sg1
(g5
S'\xac\x03\x00\x00'
p3768
tp3769
Rp3770
S'Big Dog?\x97?s Sled Dog Imperial Stout'
p3771
sg1
(g5
S'\xad\x03\x00\x00'
p3772
tp3773
Rp3774
S'Tenaya Creek Monsoon Double IPA'
p3775
sg1
(g5
S'\xae\x03\x00\x00'
p3776
tp3777
Rp3778
S'Great Basin Scytale 385'
p3779
sg1
(g5
S'\xaf\x03\x00\x00'
p3780
tp3781
Rp3782
S'Nebraska Inception Series Ardent Son'
p3783
sg1
(g5
S'\xb0\x03\x00\x00'
p3784
tp3785
Rp3786
S'Nebraska Inception Series Franc Blanc'
p3787
sg1
(g5
S'\xb1\x03\x00\x00'
p3788
tp3789
Rp3790
S'Tenaya Creek Red Ryder'
p3791
sg1
(g5
S'\xb2\x03\x00\x00'
p3792
tp3793
Rp3794
S'Saint James Plum Lambic'
p3795
sg1
(g5
S'\xb3\x03\x00\x00'
p3796
tp3797
Rp3798
S'Big Dog?\x97?s War Dog Imperial IPA'
p3799
sg1
(g5
S'\xb4\x03\x00\x00'
p3800
tp3801
Rp3802
S'Joseph James Citra Rye Pale Ale'
p3803
sg1
(g5
S'\xb5\x03\x00\x00'
p3804
tp3805
Rp3806
S'Joseph James Barrel Smoker'
p3807
sg1
(g5
S'\xb6\x03\x00\x00'
p3808
tp3809
Rp3810
S'Joseph James Baby J German Chocolate Cake Stout'
p3811
sg1
(g5
S'\xb7\x03\x00\x00'
p3812
tp3813
Rp3814
S'Tenaya Creek Old Jackalope Barleywine'
p3815
sg1
(g5
S'\xb8\x03\x00\x00'
p3816
tp3817
Rp3818
S'Saint James Daily Wages'
p3819
sg1
(g5
S'\xb9\x03\x00\x00'
p3820
tp3821
Rp3822
S'Tenaya Creek Imperial Stout'
p3823
sg1
(g5
S'\xba\x03\x00\x00'
p3824
tp3825
Rp3826
S'Joseph James Bourbon Barrel-Aged Russian Imperial Stout'
p3827
sg1
(g5
S'\xbb\x03\x00\x00'
p3828
tp3829
Rp3830
S'Brickway Vanilla Coffee Stout'
p3831
sg1
(g5
S'\xbc\x03\x00\x00'
p3832
tp3833
Rp3834
S'Lucky Bucket IPA'
p3835
sg1
(g5
S'\xbd\x03\x00\x00'
p3836
tp3837
Rp3838
S'Nebraska Inception Series #08 - Blanc is The New White'
p3839
sg1
(g5
S'\xbe\x03\x00\x00'
p3840
tp3841
Rp3842
S'Nebraska Inception Series Tart?? Apricot Saison'
p3843
sg1
(g5
S'\xbf\x03\x00\x00'
p3844
tp3845
Rp3846
S'Upstream Gianduja Imperial Rye Brown Ale'
p3847
sg1
(g5
S'\xc0\x03\x00\x00'
p3848
tp3849
Rp3850
S'Lucky Bucket Barrel Aged Kriek'
p3851
sg1
(g5
S'\xc1\x03\x00\x00'
p3852
tp3853
Rp3854
S'Nebraska Reserve Series Responsibly'
p3855
sg1
(g5
S'\xc2\x03\x00\x00'
p3856
tp3857
Rp3858
S'Nebraska India Pale Ale (2011-  )'
p3859
sg1
(g5
S'\xc3\x03\x00\x00'
p3860
tp3861
Rp3862
S'Jaipur Jalape??o Ale'
p3863
sg1
(g5
S'\xc4\x03\x00\x00'
p3864
tp3865
Rp3866
S'Lucky Bucket Whiskey Barrel Aged Certified Evil'
p3867
sg1
(g5
S'\xc5\x03\x00\x00'
p3868
tp3869
Rp3870
S'Thunderhead Espresso Stout'
p3871
sg1
(g5
S'\xc6\x03\x00\x00'
p3872
tp3873
Rp3874
S'Nebraska HopAnomaly'
p3875
sg1
(g5
S'\xc7\x03\x00\x00'
p3876
tp3877
Rp3878
S'Nebraska Inception Series Runnin?\x97? with the Devil'
p3879
sg1
(g5
S'\xc8\x03\x00\x00'
p3880
tp3881
Rp3882
S'Nebraska Little Betty Russian Imperial Stout'
p3883
sg1
(g5
S'\xc9\x03\x00\x00'
p3884
tp3885
Rp3886
S'Nebraska Reserve Series Barrel Aged Fathead  '
p3887
sg1
(g5
S'\xca\x03\x00\x00'
p3888
tp3889
Rp3890
S'Nebraska Apricot Au Poivre Saison'
p3891
sg1
(g5
S'\xcb\x03\x00\x00'
p3892
tp3893
Rp3894
S'Nebraska Reserve Series Melange A Trois '
p3895
sg1
(g5
S'\xcc\x03\x00\x00'
p3896
tp3897
Rp3898
S'Upstream Grand Cru'
p3899
sg1
(g5
S'\xcd\x03\x00\x00'
p3900
tp3901
Rp3902
S'Dempseys Longship Lager'
p3903
sg1
(g5
S'\xce\x03\x00\x00'
p3904
tp3905
Rp3906
S'Reaver Beach The Kracken'
p3907
sg1
(g5
S'\xcf\x03\x00\x00'
p3908
tp3909
Rp3910
S'DC Brau For Others'
p3911
sg1
(g5
S'\xd0\x03\x00\x00'
p3912
tp3913
Rp3914
S'Westbrook Mexican Cake Imperial Stout - Pappy Barrel'
p3915
sg1
(g5
S'\xd1\x03\x00\x00'
p3916
tp3917
Rp3918
S'Westbrook 4th Anniversary - Bourbon Barrel Aged'
p3919
sg1
(g5
S'\xd2\x03\x00\x00'
p3920
tp3921
Rp3922
S'Westbrook Mexican Cake Imperial Stout - Bourbon Barrel (2014)'
p3923
sg1
(g5
S'\xd3\x03\x00\x00'
p3924
tp3925
Rp3926
S'Westbrook Mexican Cake Imperial Stout'
p3927
sg1
(g5
S'\xd4\x03\x00\x00'
p3928
tp3929
Rp3930
S'Westbrook Mexican Cake Imperial Stout - Red Wine Barrel'
p3931
sg1
(g5
S'\xd5\x03\x00\x00'
p3932
tp3933
Rp3934
S'Westbrook Leopold'
p3935
sg1
(g5
S'\xd6\x03\x00\x00'
p3936
tp3937
Rp3938
S'Blackberry Farm Apricot Saison'
p3939
sg1
(g5
S'\xd7\x03\x00\x00'
p3940
tp3941
Rp3942
S'Brash Vulgar Display of Power'
p3943
sg1
(g5
S'\xd8\x03\x00\x00'
p3944
tp3945
Rp3946
S'Uinta Crooked Line Stompin\x8a\x97\xc8 Grounds Coffee Stout'
p3947
sg1
(g5
S'\xd9\x03\x00\x00'
p3948
tp3949
Rp3950
S'Hill Farmstead Works of Love (Sante Adairius - 2013)'
p3951
sg1
(g5
S'\xda\x03\x00\x00'
p3952
tp3953
Rp3954
S'Elysian Punkuccino Coffee Pumpkin Ale'
p3955
sg1
(g5
S'\xdb\x03\x00\x00'
p3956
tp3957
Rp3958
S'Bridge Brew Works The Blunt'
p3959
sg1
(g5
S'\xdc\x03\x00\x00'
p3960
tp3961
Rp3962
S'Tyranena BGW Dirty Old Man '
p3963
sg1
(g5
S'\xdd\x03\x00\x00'
p3964
tp3965
Rp3966
S'Library Rattlesnake Rye Pale Ale'
p3967
sg1
(g5
S'\xde\x03\x00\x00'
p3968
tp3969
Rp3970
S'Melvin Brosaic'
p3971
sg1
(g5
S'\xdf\x03\x00\x00'
p3972
tp3973
Rp3974
S'Altitude 7200 Stout'
p3975
sg1
(g5
S'\xe0\x03\x00\x00'
p3976
tp3977
Rp3978
S'Melvin Killer Bees'
p3979
sg1
(g5
S'\xe1\x03\x00\x00'
p3980
tp3981
Rp3982
S'Freedom\x8a\x97\xc8s Edge High Noon Chili Pepper Ale'
p3983
sg1
(g5
S'\xe2\x03\x00\x00'
p3984
tp3985
Rp3986
S'Black Tooth Indian Paintbrush Ale'
p3987
sg1
(g5
S'\xe3\x03\x00\x00'
p3988
tp3989
Rp3990
S'Black Tooth Hot Streak IPA'
p3991
sg1
(g5
S'\xe4\x03\x00\x00'
p3992
tp3993
Rp3994
S'Wind River Strom Bomb Oatmeal Stout'
p3995
sg1
(g5
S'\xe5\x03\x00\x00'
p3996
tp3997
Rp3998
S'Bitter Creek A Beer Named Bob'
p3999
sg1
(g5
S'\xe6\x03\x00\x00'
p4000
tp4001
Rp4002
S'Wind River Wyoming Pale Ale (WPA)'
p4003
sg1
(g5
S'\xe7\x03\x00\x00'
p4004
tp4005
Rp4006
S'Black Tooth Saddle Bronc Brown'
p4007
sg1
(g5
S'\xe8\x03\x00\x00'
p4008
tp4009
Rp4010
S'Melvin Clinic ISA'
p4011
sg1
(g5
S'\xe9\x03\x00\x00'
p4012
tp4013
Rp4014
S'Altitude High Plains Pale Ale'
p4015
sg1
(g5
S'\xea\x03\x00\x00'
p4016
tp4017
Rp4018
S'Snake River Danimal\x8a\x97\xc8s Farmhouse Saison'
p4019
sg1
(g5
S'\xeb\x03\x00\x00'
p4020
tp4021
Rp4022
S'Snake River Pako\x8a\x97\xc8s IPA'
p4023
sg1
(g5
S'\xec\x03\x00\x00'
p4024
tp4025
Rp4026
S'Melvin Drunken Master'
p4027
sg1
(g5
S'\xed\x03\x00\x00'
p4028
tp4029
Rp4030
S'Snake River Zonker Stout'
p4031
sg1
(g5
S'\xee\x03\x00\x00'
p4032
tp4033
Rp4034
S'Snake River Le Serpent Cerise'
p4035
sg1
(g5
S'\xef\x03\x00\x00'
p4036
tp4037
Rp4038
S'Brenner Witchcraft Imperial Stout'
p4039
sg1
(g5
S'\xf0\x03\x00\x00'
p4040
tp4041
Rp4042
S'Snake River Le Serpent'
p4043
sg1
(g5
S'\xf1\x03\x00\x00'
p4044
tp4045
Rp4046
S'Melvin Hubert MPA'
p4047
sg1
(g5
S'\xf2\x03\x00\x00'
p4048
tp4049
Rp4050
S'Melvin IPA'
p4051
sg1
(g5
S'\xf3\x03\x00\x00'
p4052
tp4053
Rp4054
S'Melvin Asterisk Double IPA'
p4055
sg1
(g5
S'\xf4\x03\x00\x00'
p4056
tp4057
Rp4058
S'Melvin Shaolin Brew IPA'
p4059
sg1
(g5
S'\xf5\x03\x00\x00'
p4060
tp4061
Rp4062
S'Melvin 2x4'
p4063
sg1
(g5
S'\xf6\x03\x00\x00'
p4064
tp4065
Rp4066
S'Snake River Le Serpent Framboise'
p4067
sg1
(g5
S'\xf7\x03\x00\x00'
p4068
tp4069
Rp4070
S'New Glarus Dancing Man Wheat'
p4071
sg1
(g5
S'\xf8\x03\x00\x00'
p4072
tp4073
Rp4074
S'New Glarus Thumbprint Series Cran-bic Ale'
p4075
sg1
(g5
S'\xf9\x03\x00\x00'
p4076
tp4077
Rp4078
S'New Glarus R & D Vintage 2014'
p4079
sg1
(g5
S'\xfa\x03\x00\x00'
p4080
tp4081
Rp4082
S'Leinenkugels Big Eddy Russian Imperial Stout'
p4083
sg1
(g5
S'\xfb\x03\x00\x00'
p4084
tp4085
Rp4086
S'New Glarus Thumbprint Series Wild Sour Ale'
p4087
sg1
(g5
S'\xfc\x03\x00\x00'
p4088
tp4089
Rp4090
S'New Glarus Thumbprint Series Scream IIPA'
p4091
sg1
(g5
S'\xfd\x03\x00\x00'
p4092
tp4093
Rp4094
S'Central Waters Brewer\x8a\x97\xc8s Reserve Bourbon Barrel Scotch Ale'
p4095
sg1
(g5
S'\xfe\x03\x00\x00'
p4096
tp4097
Rp4098
S'New Glarus Thumbprint Series IIPA'
p4099
sg1
(g5
S'\xff\x03\x00\x00'
p4100
tp4101
Rp4102
S'Central Waters Black Gold'
p4103
sg1
(g5
S'\x00\x04\x00\x00'
p4104
tp4105
Rp4106
S'Mountain Dragon Tulip Poplar Honey Mead'
p4107
sg1
(g5
S'\x01\x04\x00\x00'
p4108
tp4109
Rp4110
S'Central Waters 18 Anniversary Edition'
p4111
sg1
(g5
S'\x02\x04\x00\x00'
p4112
tp4113
Rp4114
S'Central Waters Brewer\x8a\x97\xc8s Reserve Bourbon Barrel Barleywine'
p4115
sg1
(g5
S'\x03\x04\x00\x00'
p4116
tp4117
Rp4118
S'Central Waters Brewer\x8a\x97\xc8s Reserve Bourbon Barrel Stout'
p4119
sg1
(g5
S'\x04\x04\x00\x00'
p4120
tp4121
Rp4122
S'Funk Factory Geuzeria / Oso Framrood'
p4123
sg1
(g5
S'\x05\x04\x00\x00'
p4124
tp4125
Rp4126
S'Tyranena BGW The Devil Made Me Do It'
p4127
sg1
(g5
S'\x06\x04\x00\x00'
p4128
tp4129
Rp4130
S'Tyranena BGW Whos Your Daddy? Bourbon Barrel-Aged Imperial Porter'
p4131
sg1
(g5
S'\x07\x04\x00\x00'
p4132
tp4133
Rp4134
S'Central Waters 17 Anniversary Edition'
p4135
sg1
(g5
S'\x08\x04\x00\x00'
p4136
tp4137
Rp4138
S'Tyranena BGW Devil Over A Barrel'
p4139
sg1
(g5
S'\t\x04\x00\x00'
p4140
tp4141
Rp4142
S'New Glarus Raspberry Tart'
p4143
sg1
(g5
S'\n\x04\x00\x00'
p4144
tp4145
Rp4146
S'New Glarus R & D Wild Peach'
p4147
sg1
(g5
S'\x0b\x04\x00\x00'
p4148
tp4149
Rp4150
S'New Glarus Serendipity'
p4151
sg1
(g5
S'\x0c\x04\x00\x00'
p4152
tp4153
Rp4154
S'Funk Factory Geuzeria / Oso Frampaars'
p4155
sg1
(g5
S'\r\x04\x00\x00'
p4156
tp4157
Rp4158
S'New Glarus Wisconsin Belgian Red'
p4159
sg1
(g5
S'\x0e\x04\x00\x00'
p4160
tp4161
Rp4162
S'Central Waters Ardea Insignis Imperial Stout'
p4163
sg1
(g5
S'\x0f\x04\x00\x00'
p4164
tp4165
Rp4166
S'Bridge Brew Works Black Diamond Lager'
p4167
sg1
(g5
S'\x10\x04\x00\x00'
p4168
tp4169
Rp4170
S'Lost River Black Ale'
p4171
sg1
(g5
S'\x11\x04\x00\x00'
p4172
tp4173
Rp4174
S'Greenbrier Valley Wild & Wonderful Series #2: Hefeweizen'
p4175
sg1
(g5
S'\x12\x04\x00\x00'
p4176
tp4177
Rp4178
S'Healthberry Farm Honey River Tulip Poplar Mead'
p4179
sg1
(g5
S'\x13\x04\x00\x00'
p4180
tp4181
Rp4182
S'Morgantown First Shift Coffee Porter'
p4183
sg1
(g5
S'\x14\x04\x00\x00'
p4184
tp4185
Rp4186
S'Bridge Brew Works India Pale Ale'
p4187
sg1
(g5
S'\x15\x04\x00\x00'
p4188
tp4189
Rp4190
S'Morgantown Anderson\x8a\x97\xc8s Kettle Bottom Brown Ale'
p4191
sg1
(g5
S'\x16\x04\x00\x00'
p4192
tp4193
Rp4194
S'Bridge Brew Works Trubell'
p4195
sg1
(g5
S'\x17\x04\x00\x00'
p4196
tp4197
Rp4198
S'Big Timber IPA'
p4199
sg1
(g5
S'\x18\x04\x00\x00'
p4200
tp4201
Rp4202
S'Morgantown Zack Morgan\x8a\x97\xc8s IPA'
p4203
sg1
(g5
S'\x19\x04\x00\x00'
p4204
tp4205
Rp4206
S'Greenbrier Valley Wild Trail Pale Ale'
p4207
sg1
(g5
S'\x1a\x04\x00\x00'
p4208
tp4209
Rp4210
S'Bridge Brew Works Momma Rye IPA'
p4211
sg1
(g5
S'\x1b\x04\x00\x00'
p4212
tp4213
Rp4214
S'North End Dawks Classic Porter'
p4215
sg1
(g5
S'\x1c\x04\x00\x00'
p4216
tp4217
Rp4218
S'Kenco Farms Blue Mead'
p4219
sg1
(g5
S'\x1d\x04\x00\x00'
p4220
tp4221
Rp4222
S'Bridge Brew Works The Dun Glen Dubbel'
p4223
sg1
(g5
S'\x1e\x04\x00\x00'
p4224
tp4225
Rp4226
S'Greenbrier Valley Mothman Black IPA'
p4227
sg1
(g5
S'\x1f\x04\x00\x00'
p4228
tp4229
Rp4230
S'Greenbrier Valley Devil Anse IPA'
p4231
sg1
(g5
S' \x04\x00\x00'
p4232
tp4233
Rp4234
S'Bridge Brew Works Hellbender IPA'
p4235
sg1
(g5
S'!\x04\x00\x00'
p4236
tp4237
Rp4238
S'Chestnut Brew Works Halleck Pale Ale'
p4239
sg1
(g5
S'"\x04\x00\x00'
p4240
tp4241
Rp4242
S'Bluejacket P.X. Sherry Barrel-Aged High Society 2016'
p4243
sg1
(g5
S'#\x04\x00\x00'
p4244
tp4245
Rp4246
S'Bluejacket Further'
p4247
sg1
(g5
S'$\x04\x00\x00'
p4248
tp4249
Rp4250
S'3 Stars Starsky and Dutch'
p4251
sg1
(g5
S'%\x04\x00\x00'
p4252
tp4253
Rp4254
S'Morgantown Coal City Stout'
p4255
sg1
(g5
S'&\x04\x00\x00'
p4256
tp4257
Rp4258
S'Bridge Brew Works Peregrine Porter'
p4259
sg1
(g5
S"'\x04\x00\x00"
p4260
tp4261
Rp4262
S'Bridge Brew Works Moxxee Coffee Stout'
p4263
sg1
(g5
S'(\x04\x00\x00'
p4264
tp4265
Rp4266
S'Big Timber Porter'
p4267
sg1
(g5
S')\x04\x00\x00'
p4268
tp4269
Rp4270
S'Bluejacket Wary Fiend'
p4271
sg1
(g5
S'*\x04\x00\x00'
p4272
tp4273
Rp4274
S'Bluejacket Mexican Radio (Whiskey Barrel Aged)'
p4275
sg1
(g5
S'+\x04\x00\x00'
p4276
tp4277
Rp4278
S'Right Proper Kodachrome Dream(ing)'
p4279
sg1
(g5
S',\x04\x00\x00'
p4280
tp4281
Rp4282
S'Bluejacket / Intangible Ales Travlr\x8a\x97\xc8s 12k'
p4283
sg1
(g5
S'-\x04\x00\x00'
p4284
tp4285
Rp4286
S'Atlas Brew Works NSFW'
p4287
sg1
(g5
S'.\x04\x00\x00'
p4288
tp4289
Rp4290
S'Bluejacket Lost Weekend'
p4291
sg1
(g5
S'/\x04\x00\x00'
p4292
tp4293
Rp4294
S'DC Brau Alpha Domina Mellis'
p4295
sg1
(g5
S'0\x04\x00\x00'
p4296
tp4297
Rp4298
S'DC Brau Penn Quarter Porter'
p4299
sg1
(g5
S'1\x04\x00\x00'
p4300
tp4301
Rp4302
S'Bluejacket / Brooklyn / New Belgium Rheinard de Vos'
p4303
sg1
(g5
S'2\x04\x00\x00'
p4304
tp4305
Rp4306
S'Right Proper The Lubitsch Touch'
p4307
sg1
(g5
S'3\x04\x00\x00'
p4308
tp4309
Rp4310
S'Bluejacket Mexican Radio'
p4311
sg1
(g5
S'4\x04\x00\x00'
p4312
tp4313
Rp4314
S'Bluejacket / Intangible Ales Gene Turns 10k'
p4315
sg1
(g5
S'5\x04\x00\x00'
p4316
tp4317
Rp4318
S'Bluejacket Wallflower'
p4319
sg1
(g5
S'6\x04\x00\x00'
p4320
tp4321
Rp4322
S'Bluejacket A Little Golden Gem'
p4323
sg1
(g5
S'7\x04\x00\x00'
p4324
tp4325
Rp4326
S'Right Proper Kick.Kick.Snare'
p4327
sg1
(g5
S'8\x04\x00\x00'
p4328
tp4329
Rp4330
S'DC Brau / Oskar Blues Smells Like Freedom'
p4331
sg1
(g5
S'9\x04\x00\x00'
p4332
tp4333
Rp4334
S'James E. Pepper 1776 American Brown Ale '
p4335
sg1
(g5
S':\x04\x00\x00'
p4336
tp4337
Rp4338
S'Right Proper Diamonds, Fur Coat, Champagne'
p4339
sg1
(g5
S';\x04\x00\x00'
p4340
tp4341
Rp4342
S'DC Brau Solar Abyss'
p4343
sg1
(g5
S'<\x04\x00\x00'
p4344
tp4345
Rp4346
S'DC Brau On the Wings of Armageddon'
p4347
sg1
(g5
S'=\x04\x00\x00'
p4348
tp4349
Rp4350
S'Elysian The Fix'
p4351
sg1
(g5
S'>\x04\x00\x00'
p4352
tp4353
Rp4354
S'Urban Family Lady of the Night'
p4355
sg1
(g5
S'?\x04\x00\x00'
p4356
tp4357
Rp4358
S'Holy Mountain Midnight Still - Cherry Rye'
p4359
sg1
(g5
S'@\x04\x00\x00'
p4360
tp4361
Rp4362
S'Pike XXXXX Stout'
p4363
sg1
(g5
S'A\x04\x00\x00'
p4364
tp4365
Rp4366
S'Elysian Dragonstooth Stout'
p4367
sg1
(g5
S'B\x04\x00\x00'
p4368
tp4369
Rp4370
S'Boundary Bay Imperial IPA'
p4371
sg1
(g5
S'C\x04\x00\x00'
p4372
tp4373
Rp4374
S'Old Schoolhouse Imperial Stout'
p4375
sg1
(g5
S'D\x04\x00\x00'
p4376
tp4377
Rp4378
S'Black Raven Grandfather Raven Imperial Stout'
p4379
sg1
(g5
S'E\x04\x00\x00'
p4380
tp4381
Rp4382
S'Fish Tale 10\xce_ Anniversary Ale'
p4383
sg1
(g5
S'F\x04\x00\x00'
p4384
tp4385
Rp4386
S'Silver City Le Fat'
p4387
sg1
(g5
S'G\x04\x00\x00'
p4388
tp4389
Rp4390
S'Alpenfire smoke'
p4391
sg1
(g5
S'H\x04\x00\x00'
p4392
tp4393
Rp4394
S'Holy Mountain Mis\x92\xe5re au Borinage'
p4395
sg1
(g5
S'I\x04\x00\x00'
p4396
tp4397
Rp4398
S'LaConner Olde Curmudgeon'
p4399
sg1
(g5
S'J\x04\x00\x00'
p4400
tp4401
Rp4402
S'Fremont Cowiche Canyon - Citra & Simcoe (Fresh Hop)'
p4403
sg1
(g5
S'K\x04\x00\x00'
p4404
tp4405
Rp4406
S'Black Raven Wisdom Seeker Double IPA'
p4407
sg1
(g5
S'L\x04\x00\x00'
p4408
tp4409
Rp4410
S'Holy Mountain Midnight Still - Coffee Vanilla'
p4411
sg1
(g5
S'M\x04\x00\x00'
p4412
tp4413
Rp4414
S'Fremont Dark Star - Bourbon Barrel Spice Wars'
p4415
sg1
(g5
S'N\x04\x00\x00'
p4416
tp4417
Rp4418
S'Fremont Abominable - Bourbon Barrel '
p4419
sg1
(g5
S'O\x04\x00\x00'
p4420
tp4421
Rp4422
S'Walking Man Jaywalker Russian Imperial Stout'
p4423
sg1
(g5
S'P\x04\x00\x00'
p4424
tp4425
Rp4426
S'Fremont Dark Star - Bourbon Barrel Coffee Edition'
p4427
sg1
(g5
S'Q\x04\x00\x00'
p4428
tp4429
Rp4430
S'Fremont Dark Star - Bourbon Barrel'
p4431
sg1
(g5
S'R\x04\x00\x00'
p4432
tp4433
Rp4434
S'Fremont Rusty Nail'
p4435
sg1
(g5
S'S\x04\x00\x00'
p4436
tp4437
Rp4438
S'Fremont Brew 1000'
p4439
sg1
(g5
S'T\x04\x00\x00'
p4440
tp4441
Rp4442
S'Fremont Abominable - Bourbon Barrel Coffee Cinnamon'
p4443
sg1
(g5
S'U\x04\x00\x00'
p4444
tp4445
Rp4446
S'Lickinghole Creek Heir Apparent'
p4447
sg1
(g5
S'V\x04\x00\x00'
p4448
tp4449
Rp4450
S'Mad Fox Batch 100 Strong Black Ale'
p4451
sg1
(g5
S'W\x04\x00\x00'
p4452
tp4453
Rp4454
S'Lickinghole Creek Coconut Quadrupel Ale'
p4455
sg1
(g5
S'X\x04\x00\x00'
p4456
tp4457
Rp4458
S'Lickinghole Creek Great Commander'
p4459
sg1
(g5
S'Y\x04\x00\x00'
p4460
tp4461
Rp4462
S'The Veil Master Master Shredder Shredder'
p4463
sg1
(g5
S'Z\x04\x00\x00'
p4464
tp4465
Rp4466
S'Legend Imperial IPA'
p4467
sg1
(g5
S'[\x04\x00\x00'
p4468
tp4469
Rp4470
S'The Veil Crucial Taunt Double IPA'
p4471
sg1
(g5
S'\\\x04\x00\x00'
p4472
tp4473
Rp4474
S'Devils Backbone / Wicked Weed Seven Summits'
p4475
sg1
(g5
S']\x04\x00\x00'
p4476
tp4477
Rp4478
S'Hardywood Bourbon Barrel Raspberry Stout With Vanilla Beans'
p4479
sg1
(g5
S'^\x04\x00\x00'
p4480
tp4481
Rp4482
S'Hardywood Gingerbread Stout'
p4483
sg1
(g5
S'_\x04\x00\x00'
p4484
tp4485
Rp4486
S'Hardywood Bourbon GBS (Gingerbread Stout)'
p4487
sg1
(g5
S'`\x04\x00\x00'
p4488
tp4489
Rp4490
S'Hardywood Apple Brandy Barrel GBS (Gingerbread Stout)'
p4491
sg1
(g5
S'a\x04\x00\x00'
p4492
tp4493
Rp4494
S'Sweetwater Tavern Barrel Aged High Desert Imperial Stout'
p4495
sg1
(g5
S'b\x04\x00\x00'
p4496
tp4497
Rp4498
S'AleWerks Brewmasters Reserve Bourbon Barrel Porter'
p4499
sg1
(g5
S'c\x04\x00\x00'
p4500
tp4501
Rp4502
S'Lickinghole Creek Supreme Leader'
p4503
sg1
(g5
S'd\x04\x00\x00'
p4504
tp4505
Rp4506
S'Hardywood Trickery'
p4507
sg1
(g5
S'e\x04\x00\x00'
p4508
tp4509
Rp4510
S'Three Notch\x8a\x97\xc8d Biggie S\x8a\x97\xc8mores Imperial Stout '
p4511
sg1
(g5
S'f\x04\x00\x00'
p4512
tp4513
Rp4514
S'AleWerks Secret Admirer'
p4515
sg1
(g5
S'g\x04\x00\x00'
p4516
tp4517
Rp4518
S'Sweetwater Tavern High Desert Imperial Stout'
p4519
sg1
(g5
S'h\x04\x00\x00'
p4520
tp4521
Rp4522
S'Hardywood Christmas Morning'
p4523
sg1
(g5
S'i\x04\x00\x00'
p4524
tp4525
Rp4526
S'Hardywood Kentucky Christmas Morning'
p4527
sg1
(g5
S'j\x04\x00\x00'
p4528
tp4529
Rp4530
S'AleWerks Cafe Royale'
p4531
sg1
(g5
S'k\x04\x00\x00'
p4532
tp4533
Rp4534
S'Hardywood Foolery'
p4535
sg1
(g5
S'l\x04\x00\x00'
p4536
tp4537
Rp4538
S'AleWerks Bitter Valentine'
p4539
sg1
(g5
S'm\x04\x00\x00'
p4540
tp4541
Rp4542
S'Hill Farmstead What Is Enlightenment?'
p4543
sg1
(g5
S'n\x04\x00\x00'
p4544
tp4545
Rp4546
S'Hill Farmstead Society & Solitude #4'
p4547
sg1
(g5
S'o\x04\x00\x00'
p4548
tp4549
Rp4550
S'Hill Farmstead Society & Solitude #3'
p4551
sg1
(g5
S'p\x04\x00\x00'
p4552
tp4553
Rp4554
S'Hill Farmstead Flora - Plum'
p4555
sg1
(g5
S'q\x04\x00\x00'
p4556
tp4557
Rp4558
S'Hill Farmstead Citra Single Hop Pale Ale'
p4559
sg1
(g5
S'r\x04\x00\x00'
p4560
tp4561
Rp4562
S'Grassroots Legitimacy'
p4563
sg1
(g5
S's\x04\x00\x00'
p4564
tp4565
Rp4566
S'Hill Farmstead Susan'
p4567
sg1
(g5
S't\x04\x00\x00'
p4568
tp4569
Rp4570
S'Hill Farmstead Society & Solitude #2'
p4571
sg1
(g5
S'u\x04\x00\x00'
p4572
tp4573
Rp4574
S'Hill Farmstead Dorothy - Wine Barrel Aged'
p4575
sg1
(g5
S'v\x04\x00\x00'
p4576
tp4577
Rp4578
S'Lawson\x8a\x97\xc8s Finest Double Sunshine IPA'
p4579
sg1
(g5
S'w\x04\x00\x00'
p4580
tp4581
Rp4582
S'Hill Farmstead Society & Solitude #6'
p4583
sg1
(g5
S'x\x04\x00\x00'
p4584
tp4585
Rp4586
S'Hill Farmstead Genealogy of Morals - Bourbon'
p4587
sg1
(g5
S'y\x04\x00\x00'
p4588
tp4589
Rp4590
S'Hill Farmstead Everett'
p4591
sg1
(g5
S'z\x04\x00\x00'
p4592
tp4593
Rp4594
S'Hill Farmstead Double Galaxy'
p4595
sg1
(g5
S'{\x04\x00\x00'
p4596
tp4597
Rp4598
S'Hill Farmstead Double Citra'
p4599
sg1
(g5
S'|\x04\x00\x00'
p4600
tp4601
Rp4602
S'Hill Farmstead Society & Solitude #5'
p4603
sg1
(g5
S'}\x04\x00\x00'
p4604
tp4605
Rp4606
S'Hill Farmstead Juicy'
p4607
sg1
(g5
S'~\x04\x00\x00'
p4608
tp4609
Rp4610
S'Hill Farmstead Ephraim'
p4611
sg1
(g5
S'\x7f\x04\x00\x00'
p4612
tp4613
Rp4614
S'Hill Farmstead Damon'
p4615
sg1
(g5
S'\x80\x04\x00\x00'
p4616
tp4617
Rp4618
S'Hill Farmstead Abner'
p4619
sg1
(g5
S'\x81\x04\x00\x00'
p4620
tp4621
Rp4622
S'Alchemist Heady Topper'
p4623
sg1
(g5
S'\x82\x04\x00\x00'
p4624
tp4625
Rp4626
S'Hill Farmstead Ann'
p4627
sg1
(g5
S'\x83\x04\x00\x00'
p4628
tp4629
Rp4630
S'Epic / DC Brau Brainless: Corruption'
p4631
sg1
(g5
S'\x84\x04\x00\x00'
p4632
tp4633
Rp4634
S'Epic Smoked & Oaked Belgian-Style Ale'
p4635
sg1
(g5
S'\x85\x04\x00\x00'
p4636
tp4637
Rp4638
S'Epic Imperial Red Ale'
p4639
sg1
(g5
S'\x86\x04\x00\x00'
p4640
tp4641
Rp4642
S'Epic Double Barrel Big Bad Baptist'
p4643
sg1
(g5
S'\x87\x04\x00\x00'
p4644
tp4645
Rp4646
S'Hoppers Summerset Saison'
p4647
sg1
(g5
S'\x88\x04\x00\x00'
p4648
tp4649
Rp4650
S'Epic Brainless IPA'
p4651
sg1
(g5
S'\x89\x04\x00\x00'
p4652
tp4653
Rp4654
S'Uinta Crooked Line Oak Jacked Imperial Pumpkin'
p4655
sg1
(g5
S'\x8a\x04\x00\x00'
p4656
tp4657
Rp4658
S'Epic Hopulent IPA'
p4659
sg1
(g5
S'\x8b\x04\x00\x00'
p4660
tp4661
Rp4662
S'Red Rock Paardebloem '
p4663
sg1
(g5
S'\x8c\x04\x00\x00'
p4664
tp4665
Rp4666
S'Epic Imperial IPA'
p4667
sg1
(g5
S'\x8d\x04\x00\x00'
p4668
tp4669
Rp4670
S'Epic / Crooked Stave Elder Brett Saison-Brett Golden Ale'
p4671
sg1
(g5
S'\x8e\x04\x00\x00'
p4672
tp4673
Rp4674
S'Epic Imperial Stout'
p4675
sg1
(g5
S'\x8f\x04\x00\x00'
p4676
tp4677
Rp4678
S'Uinta Crooked Line Cockeyed Cooper '
p4679
sg1
(g5
S'\x90\x04\x00\x00'
p4680
tp4681
Rp4682
S'Epic Old Sage Brett'
p4683
sg1
(g5
S'\x91\x04\x00\x00'
p4684
tp4685
Rp4686
S'Epic Sour Brainless on Peaches'
p4687
sg1
(g5
S'\x92\x04\x00\x00'
p4688
tp4689
Rp4690
S'Squatters 529'
p4691
sg1
(g5
S'\x93\x04\x00\x00'
p4692
tp4693
Rp4694
S'Epic Son of a Baptist'
p4695
sg1
(g5
S'\x94\x04\x00\x00'
p4696
tp4697
Rp4698
S'Uinta Dubhe Imperial Black IPA'
p4699
sg1
(g5
S'\x95\x04\x00\x00'
p4700
tp4701
Rp4702
S'Uinta Crooked Line Sea Legs Baltic Porter'
p4703
sg1
(g5
S'\x96\x04\x00\x00'
p4704
tp4705
Rp4706
S'Squatters Outer Darkness'
p4707
sg1
(g5
S'\x97\x04\x00\x00'
p4708
tp4709
Rp4710
S'Jester King Nocturn Chrysalis - Gin Barrel Aged'
p4711
sg1
(g5
S'\x98\x04\x00\x00'
p4712
tp4713
Rp4714
S'Uinta Crooked Line Labyrinth Black Ale'
p4715
sg1
(g5
S'\x99\x04\x00\x00'
p4716
tp4717
Rp4718
S'Squatters Fifth Element'
p4719
sg1
(g5
S'\x9a\x04\x00\x00'
p4720
tp4721
Rp4722
S'Epic Big Bad Baptist '
p4723
sg1
(g5
S'\x9b\x04\x00\x00'
p4724
tp4725
Rp4726
S'Epic Big Bad Baptista'
p4727
sg1
(g5
S'\x9c\x04\x00\x00'
p4728
tp4729
Rp4730
S'(512) Cascabel Cream Stout'
p4731
sg1
(g5
S'\x9d\x04\x00\x00'
p4732
tp4733
Rp4734
S'Austin Beerworks Heavy Machinery IPA Series #2: Double IPA'
p4735
sg1
(g5
S'\x9e\x04\x00\x00'
p4736
tp4737
Rp4738
S'Freetail Raspberry Ananke'
p4739
sg1
(g5
S'\x9f\x04\x00\x00'
p4740
tp4741
Rp4742
S'Real Ale The Kraken'
p4743
sg1
(g5
S'\xa0\x04\x00\x00'
p4744
tp4745
Rp4746
S'Jester King / Mikkeller Whiskey Barrel Rodeo'
p4747
sg1
(g5
S'\xa1\x04\x00\x00'
p4748
tp4749
Rp4750
S'Brash Biggie Smalls Imperial Brown Ale '
p4751
sg1
(g5
S'\xa2\x04\x00\x00'
p4752
tp4753
Rp4754
S'Jester King Nocturn Chrysalis (Batch 2+)'
p4755
sg1
(g5
S'\xa3\x04\x00\x00'
p4756
tp4757
Rp4758
S'Lakewood Bourbon Barrel Temptress (BBT)'
p4759
sg1
(g5
S'\xa4\x04\x00\x00'
p4760
tp4761
Rp4762
S'Saint Arnold Bishop\x8a\x97\xc8s Barrel #8'
p4763
sg1
(g5
S'\xa5\x04\x00\x00'
p4764
tp4765
Rp4766
S'Jester King / Mikkeller Weasel Rodeo'
p4767
sg1
(g5
S'\xa6\x04\x00\x00'
p4768
tp4769
Rp4770
S'Jester King Aurelian Lure'
p4771
sg1
(g5
S'\xa7\x04\x00\x00'
p4772
tp4773
Rp4774
S'Brash Cortado'
p4775
sg1
(g5
S'\xa8\x04\x00\x00'
p4776
tp4777
Rp4778
S'Jester King Bi\x92\xe5re de Syrah'
p4779
sg1
(g5
S'\xa9\x04\x00\x00'
p4780
tp4781
Rp4782
S'Jester King \xeb_\xe6 _\x8d\xdb (F\xf3\x96n t\x92\x8do)'
p4783
sg1
(g5
S'\xaa\x04\x00\x00'
p4784
tp4785
Rp4786
S'Jester King Bi\x92\xe5re de Blanc du Bois'
p4787
sg1
(g5
S'\xab\x04\x00\x00'
p4788
tp4789
Rp4790
S'Saint Arnold Divine Reserve #15'
p4791
sg1
(g5
S'\xac\x04\x00\x00'
p4792
tp4793
Rp4794
S'Karbach 003 Bourbon Barrel Hellfighter'
p4795
sg1
(g5
S'\xad\x04\x00\x00'
p4796
tp4797
Rp4798
S'Lakewood French Quarter Temptress'
p4799
sg1
(g5
S'\xae\x04\x00\x00'
p4800
tp4801
Rp4802
S'Saint Arnold Bishop\x8a\x97\xc8s Barrel #1'
p4803
sg1
(g5
S'\xaf\x04\x00\x00'
p4804
tp4805
Rp4806
S'Community Barrel Aged Legion'
p4807
sg1
(g5
S'\xb0\x04\x00\x00'
p4808
tp4809
Rp4810
S'Jester King Montmorency vs. Balaton'
p4811
sg1
(g5
S'\xb1\x04\x00\x00'
p4812
tp4813
Rp4814
S'Jester King Atrial Rubicite'
p4815
sg1
(g5
S'\xb2\x04\x00\x00'
p4816
tp4817
Rp4818
S'Jester King Sherry Barrel Atrial Rubicite'
p4819
sg1
(g5
S'\xb3\x04\x00\x00'
p4820
tp4821
Rp4822
S'Terminal BrewHouse Magnum PA'
p4823
sg1
(g5
S'\xb4\x04\x00\x00'
p4824
tp4825
Rp4826
S'Blackberry Farm Spring Saison'
p4827
sg1
(g5
S'\xb5\x04\x00\x00'
p4828
tp4829
Rp4830
S'Yazoo Sly Rye Porter'
p4831
sg1
(g5
S'\xb6\x04\x00\x00'
p4832
tp4833
Rp4834
S'Turtle Anarchy Another Way to Rye'
p4835
sg1
(g5
S'\xb7\x04\x00\x00'
p4836
tp4837
Rp4838
S'Terminal BrewHouse The White Shadow'
p4839
sg1
(g5
S'\xb8\x04\x00\x00'
p4840
tp4841
Rp4842
S'Yazoo / New Belgium Embrace The Funk Series: Rufus'
p4843
sg1
(g5
S'\xb9\x04\x00\x00'
p4844
tp4845
Rp4846
S'Wiseacre Adjective Animal'
p4847
sg1
(g5
S'\xba\x04\x00\x00'
p4848
tp4849
Rp4850
S'Blackberry Farm Barrel Series - Brett Saison'
p4851
sg1
(g5
S'\xbb\x04\x00\x00'
p4852
tp4853
Rp4854
S'Terminal BrewHouse Southsidenstein Stout'
p4855
sg1
(g5
S'\xbc\x04\x00\x00'
p4856
tp4857
Rp4858
S'Blackberry Farm Blackberry Rye'
p4859
sg1
(g5
S'\xbd\x04\x00\x00'
p4860
tp4861
Rp4862
S'Boscos HopGod Ale'
p4863
sg1
(g5
S'\xbe\x04\x00\x00'
p4864
tp4865
Rp4866
S'Blackstone Adam Bomb IPA'
p4867
sg1
(g5
S'\xbf\x04\x00\x00'
p4868
tp4869
Rp4870
S'Blackberry Farm New World Cuvee Dry Hop Saison (2016)'
p4871
sg1
(g5
S'\xc0\x04\x00\x00'
p4872
tp4873
Rp4874
S'Yazoo Fortuitous'
p4875
sg1
(g5
S'\xc1\x04\x00\x00'
p4876
tp4877
Rp4878
S'Yazoo Embrace The Funk Series: Citra Luxe'
p4879
sg1
(g5
S'\xc2\x04\x00\x00'
p4880
tp4881
Rp4882
S'Blackberry Farm Brett Saison'
p4883
sg1
(g5
S'\xc3\x04\x00\x00'
p4884
tp4885
Rp4886
S'Wiseacre Gotta Get Up to Get Down Coffee Milk Stout'
p4887
sg1
(g5
S'\xc4\x04\x00\x00'
p4888
tp4889
Rp4890
S'Yazoo Embrace the Funk Series: Deux Rouges'
p4891
sg1
(g5
S'\xc5\x04\x00\x00'
p4892
tp4893
Rp4894
S'Blackberry Farm / Evil Twin From Tennessee With Smoke'
p4895
sg1
(g5
S'\xc6\x04\x00\x00'
p4896
tp4897
Rp4898
S'Blackberry Farm Classic Saison'
p4899
sg1
(g5
S'\xc7\x04\x00\x00'
p4900
tp4901
Rp4902
S'Yazoo SUE'
p4903
sg1
(g5
S'\xc8\x04\x00\x00'
p4904
tp4905
Rp4906
S'Blackberry Farm Summer Saison'
p4907
sg1
(g5
S'\xc9\x04\x00\x00'
p4908
tp4909
Rp4910
S'Dempseys Valkyrie Red'
p4911
sg1
(g5
S'\xca\x04\x00\x00'
p4912
tp4913
Rp4914
S'Crow Peak Easy Livin\x8a\x97\xc8 Summer Ale'
p4915
sg1
(g5
S'\xcb\x04\x00\x00'
p4916
tp4917
Rp4918
S'Crow Peak Redwater Ale'
p4919
sg1
(g5
S'\xcc\x04\x00\x00'
p4920
tp4921
Rp4922
S'Crow Peak Roughlocktoberfest'
p4923
sg1
(g5
S'\xcd\x04\x00\x00'
p4924
tp4925
Rp4926
S'Firehouse Honey Rye Porter'
p4927
sg1
(g5
S'\xce\x04\x00\x00'
p4928
tp4929
Rp4930
S'Firehouse Strong Arm Porter'
p4931
sg1
(g5
S'\xcf\x04\x00\x00'
p4932
tp4933
Rp4934
S'Firehouse Prodigy Porter'
p4935
sg1
(g5
S'\xd0\x04\x00\x00'
p4936
tp4937
Rp4938
S'Firehouse Brewers Golden'
p4939
sg1
(g5
S'\xd1\x04\x00\x00'
p4940
tp4941
Rp4942
S'Wiseacre Astronaut Status'
p4943
sg1
(g5
S'\xd2\x04\x00\x00'
p4944
tp4945
Rp4946
S'Sick N Twisted Hop On Top IPA'
p4947
sg1
(g5
S'\xd3\x04\x00\x00'
p4948
tp4949
Rp4950
S'Firehouse Brown Cow Ale'
p4951
sg1
(g5
S'\xd4\x04\x00\x00'
p4952
tp4953
Rp4954
S'Crow Peak Canyon Cream Ale'
p4955
sg1
(g5
S'\xd5\x04\x00\x00'
p4956
tp4957
Rp4958
S'Firehouse Wilderness Wheat'
p4959
sg1
(g5
S'\xd6\x04\x00\x00'
p4960
tp4961
Rp4962
S'Firehouse Buffalo Bitter'
p4963
sg1
(g5
S'\xd7\x04\x00\x00'
p4964
tp4965
Rp4966
S'Firehouse Red'
p4967
sg1
(g5
S'\xd8\x04\x00\x00'
p4968
tp4969
Rp4970
S'Crow Peak Eleventh Hour IPA'
p4971
sg1
(g5
S'\xd9\x04\x00\x00'
p4972
tp4973
Rp4974
S'Fernson IPA'
p4975
sg1
(g5
S'\xda\x04\x00\x00'
p4976
tp4977
Rp4978
S'Fernson Farmhouse Ale'
p4979
sg1
(g5
S'\xdb\x04\x00\x00'
p4980
tp4981
Rp4982
S'Firehouse Chukkar Ale'
p4983
sg1
(g5
S'\xdc\x04\x00\x00'
p4984
tp4985
Rp4986
S'Crow Peak Bear Butte Brown Ale'
p4987
sg1
(g5
S'\xdd\x04\x00\x00'
p4988
tp4989
Rp4990
S'Crow Peak Mjollnir'
p4991
sg1
(g5
S'\xde\x04\x00\x00'
p4992
tp4993
Rp4994
S'Sick N Twisted Panty Droppin\x8a\x97\xc8 Porter'
p4995
sg1
(g5
S'\xdf\x04\x00\x00'
p4996
tp4997
Rp4998
S'Firehouse Smoke Jumper Stout'
p4999
sg1
(g5
S'\xe0\x04\x00\x00'
p5000
tp5001
Rp5002
S'Crow Peak Pile-O-Dirt Porter'
p5003
sg1
(g5
S'\xe1\x04\x00\x00'
p5004
tp5005
Rp5006
S'Prairie Berry Raspberry Honeywine'
p5007
sg1
(g5
S'\xe2\x04\x00\x00'
p5008
tp5009
Rp5010
S'Westbrook Anfernee - Whiskey Barrel Aged'
p5011
sg1
(g5
S'\xe3\x04\x00\x00'
p5012
tp5013
Rp5014
S'Westbrook Shane\x8a\x97\xc8s Big DIPA'
p5015
sg1
(g5
S'\xe4\x04\x00\x00'
p5016
tp5017
Rp5018
S'Westbrook 5th Anniversary Chocolate Raspberry Imperial Stout'
p5019
sg1
(g5
S'\xe5\x04\x00\x00'
p5020
tp5021
Rp5022
S'Westbrook 2nd Anniversary Cap\x8a\x97\xc8n Skoon\x8a\x97\xc8s Ballistic Stout'
p5023
sg1
(g5
S'\xe6\x04\x00\x00'
p5024
tp5025
Rp5026
S'Westbrook / Evil Twin Mini Growler'
p5027
sg1
(g5
S'\xe7\x04\x00\x00'
p5028
tp5029
Rp5030
S'COAST The Boy King Double IPA'
p5031
sg1
(g5
S'\xe8\x04\x00\x00'
p5032
tp5033
Rp5034
S'Westbrook 4th Anniversary Chocolate Coconut Almond Imperial Stout'
p5035
sg1
(g5
S'\xe9\x04\x00\x00'
p5036
tp5037
Rp5038
S'Humboldt Black Xantus'
p5039
sg1
(g5
S'\xea\x04\x00\x00'
p5040
tp5041
Rp5042
S'COAST Blackbeerd Imperial Stout - Bourbon Barrel'
p5043
sg1
(g5
S'\xeb\x04\x00\x00'
p5044
tp5045
Rp5046
S'Westbrook Siberian Black Magic Panther - Bourbon Barrel'
p5047
sg1
(g5
S'\xec\x04\x00\x00'
p5048
tp5049
Rp5050
S'Westbrook 2nd Anniversary Cap\x8a\x97\xc8n Skoon\x8a\x97\xc8s Ballistic Stout - Bourbon Barrel'
p5051
sg1
(g5
S'\xed\x04\x00\x00'
p5052
tp5053
Rp5054
S'Westbrook Comrade Appleseed'
p5055
sg1
(g5
S'\xee\x04\x00\x00'
p5056
tp5057
Rp5058
S'COAST Blackbeerd Imperial Stout - Jack Daniels Barrel'
p5059
sg1
(g5
S'\xef\x04\x00\x00'
p5060
tp5061
Rp5062
S'Westbrook Siberian Black Magic Panther - Apple Brandy Barrel'
p5063
sg1
(g5
S'\xf0\x04\x00\x00'
p5064
tp5065
Rp5066
S'Westbrook Mexican Cake Imperial Stout - Double Chocolate Bourbon Barrel'
p5067
sg1
(g5
S'\xf1\x04\x00\x00'
p5068
tp5069
Rp5070
S'Westbrook Mexican Cake Imperial Stout - Coffee'
p5071
sg1
(g5
S'\xf2\x04\x00\x00'
p5072
tp5073
Rp5074
S'Westbrook Mexican Cake Imperial Stout - Tequila Barrel'
p5075
sg1
(g5
S'\xf3\x04\x00\x00'
p5076
tp5077
Rp5078
S'Westbrook Mexican Cake Imperial Stout - Bourbon Barrel (2015)'
p5079
sg1
(g5
S'\xf4\x04\x00\x00'
p5080
tp5081
Rp5082
S'Westbrook Mexican Cake Imperial Stout - Bourbon Coconut '
p5083
s.