(lp0
S'(512) Cascabel Cream Stout'
p1
aS'1809 Berliner Style Weisse Zymatore - Gin & Pinot Noir Barrels'
p2
aS'18th Street Barrel Aged Hunter - Wheat Whiskey'
p3
aS'18th Street Bitches Bank'
p4
aS'18th Street Bitches Bank - Cognac Barrel Aged'
p5
aS'3 Stars Starsky and Dutch'
p6
aS'5 Seasons North Plan B IPA'
p7
aS'5 Seasons North Quinte55ence'
p8
aS'603 Granite Stout'
p9
aS'Abita Bourbon Street Baltic Porter'
p10
aS'Abita Bourbon Street Barrel Aged Imperial Stout'
p11
aS'Abita Bourbon Street Coffee Stout'
p12
aS'Abita Macchiato Espresso Milk Stout'
p13
aS'Abita Select Imperator'
p14
aS'Abita Shotgun Double IPA'
p15
aS'Abita Wrought Iron IPA'
p16
aS'Against the Grain / De Molen Bo & Luke'
p17
aS'Against the Grain / Dry & Bitter Your Lytest One'
p18
aS'Against the Grain / To l An Ale Pleasure'
p19
aS'Against the Grain 35K Stout'
p20
aS'Against the Grain 70K'
p21
aS'Against the Grain Brett The Hipman Hop'
p22
aS'Against the Grain Citra Ass Down'
p23
aS'Against the Grain Gnight Ryder'
p24
aS'Against the Grain London Balling'
p25
aS'Against the Grain Rico Sauvin'
p26
aS'Against the Grain The Green Dragon'
p27
aS'Against the Grain Tropical Segway Kitten'
p28
aS'Alaskan Pilot Series: Barley Wine Ale'
p29
aS'Alaskan Smoked Porter'
p30
aS'Alba Vineyard Forbidden'
p31
aS'Alchemist Heady Topper'
p32
aS'AleSmith Speedway Stout'
p33
aS'AleSmith Speedway Stout - Bourbon Barrel Aged'
p34
aS'AleSmith Speedway Stout - Bourbon Barrel Aged: Vietnamese Coffee'
p35
aS'AleSmith Speedway Stout - Brewers Blend: Vietnamese Coffee'
p36
aS'AleSmith Speedway Stout - Hawaiian'
p37
aS'AleSmith Speedway Stout - Vanilla & Coconut'
p38
aS'AleSmith Speedway Stout - Velvet'
p39
aS'AleSmith Speedway Stout - Vietnamese Coffee'
p40
aS'AleWerks Bitter Valentine'
p41
aS'AleWerks Brewmasters Reserve Bourbon Barrel Porter'
p42
aS'AleWerks Cafe Royale'
p43
aS'AleWerks Secret Admirer'
p44
aS'Allagash Avanc'
p45
aS'Allagash Century Ale'
p46
aS'Allagash Coolship Cerise'
p47
aS'Allagash Coolship Red'
p48
aS'Allagash Cuve dIndustrial'
p49
aS'Allagash Farm to Face'
p50
aS'Allagash Golden Brett'
p51
aS'Allagash Interlude'
p52
aS'Allagash Merveilleux'
p53
aS'Allagash Nancy'
p54
aS'Allagash St. Klippenstein'
p55
aS'Allagash Tiarna'
p56
aS'Allagash Tripel Reserve'
p57
aS'Alpenfire smoke'
p58
aS'Alpine Beer Company Keene Idea'
p59
aS'Altitude 7200 Stout'
p60
aS'Altitude High Plains Pale Ale'
p61
aS'American Solera Foeder Cerise'
p62
aS'American Solera Foeder Gold'
p63
aS'Anchorage / Jolly Pumpkin Calabaza Boreal'
p64
aS'Anchorage A Deal With The Devil Barleywine'
p65
aS'Anchorage Anadromous Belgian Black Bier'
p66
aS'Anchorage Bitter Monk Belgian Style Double IPA'
p67
aS'Anchorage Darkest Hour Imperial Stout (2014-)'
p68
aS'Anchorage Galaxy White IPA'
p69
aS'Anchorage Love Buzz Saison'
p70
aS'Anchorage Mosaic Saison'
p71
aS'Anchorage The Experiment'
p72
aS'Anchorage The Tide and Its Takers Triple'
p73
aS'Anchorage Time Waits For No One'
p74
aS'Anchorage Whiteout Wit Bier'
p75
aS'Anthem Pappy Burleson'
p76
aS'Arizona Wilderness American Presidential Stout'
p77
aS'Arizona Wilderness DC Mountain Double IPA'
p78
aS'Arizona Wilderness Picacho Pecan Pie Brown Ale'
p79
aS'Atlas Brew Works NSFW'
p80
aS'Austin Beerworks Heavy Machinery IPA Series #2: Double IPA'
p81
aS'Avery Barrel-Aged Series 36 - Callipygian'
p82
aS'Avery Mephistopheles Stout'
p83
aS'Avery The Maharaja Imperial India Pale Ale'
p84
aS'Avery Tweak'
p85
aS'Avery Uncle Jacobs Stout'
p86
aS'Avondale Barrel Aged Brett Saison'
p87
aS'Avondale Vanillaphant Porter'
p88
aS'Back Forty Trade Day Cuban Coffee Stout'
p89
aS'Bad Beat Hoppy Times IPA'
p90
aS'Barbarian Big Bad Funky Wolf'
p91
aS'Barley Johns Rosies Ale'
p92
aS'Barley Johns The Dark Knight (Returns)'
p93
aS'Bayou Teche Biere Joi Barrel Aged'
p94
aS'Bayou Teche Loup Garou'
p95
aS'Bayou Teche Saison dEcrevisse (-2015)'
p96
aS'Beer Engineers Peanut Butter Porter'
p97
aS'Bells Black Note Stout'
p98
aS'Bells Bourbon Barrel Batch 9000 Ale'
p99
aS'Bells Bourbon Barrel-Aged Expedition Stout'
p100
aS'Bells Expedition Stout'
p101
aS'Bells Hopslam'
p102
aS'Bells Traverse City Whiskey Barrel-Aged Expedition Stout'
p103
aS'Bells Two Hearted Ale'
p104
aS'Bent Paddle Double Shot Double Black'
p105
aS'Big Dogs Dirty Dog IPA'
p106
aS'Big Dogs Sled Dog Imperial Stout'
p107
aS'Big Dogs War Dog Imperial IPA'
p108
aS'Big Hole Head Smashed In'
p109
aS'Big Horn Tres Amigos Tequila Aged Imperial IPA'
p110
aS'Big Island / Caldera Red Sea Imperial Red Gose'
p111
aS'Big Island Golden Sabbath'
p112
aS'Big Island Holy Humulus'
p113
aS'Big Island Overboard IPA'
p114
aS'Big Island Red Giant Ale'
p115
aS'Big Island White Mountain Porter'
p116
aS'Big Sky Biere de Noel'
p117
aS'Big Sky Bobos Robust Porter'
p118
aS'Big Sky Cowboy Coffee Porter'
p119
aS'Big Sky IPA'
p120
aS'Big Sky Ivan The Terrible Imperial Stout'
p121
aS'Big Sky Ivan the Terrible Imperial Stout - Bourbon Barrel'
p122
aS'Big Sky Olde Bluehair Barleywine'
p123
aS'Big Sky Rye Pale Ale'
p124
aS'Big Sky Shake-A-Day India Pale Ale'
p125
aS'Big Sky Shake-a-Day Mai Tai IPA'
p126
aS'Big Timber IPA'
p127
aS'Big Timber Porter'
p128
aS'Bissell Brothers Swish'
p129
aS'Bitter Creek A Beer Named Bob'
p130
aS'Bitter Root Last Cast Black IPA'
p131
aS'Bitter Root Single Hop Ale - CTZ'
p132
aS'Black Raven Grandfather Raven Imperial Stout'
p133
aS'Black Raven Wisdom Seeker Double IPA'
p134
aS'Black Tooth Hot Streak IPA'
p135
aS'Black Tooth Indian Paintbrush Ale'
p136
aS'Black Tooth Saddle Bronc Brown'
p137
aS'Blackberry Farm / Evil Twin From Tennessee With Smoke'
p138
aS'Blackberry Farm Apricot Saison'
p139
aS'Blackberry Farm Barrel Series - Brett Saison'
p140
aS'Blackberry Farm Blackberry Rye'
p141
aS'Blackberry Farm Brett Saison'
p142
aS'Blackberry Farm Classic Saison'
p143
aS'Blackberry Farm New World Cuvee Dry Hop Saison (2016)'
p144
aS'Blackberry Farm Spring Saison'
p145
aS'Blackberry Farm Summer Saison'
p146
aS'Blackstone Adam Bomb IPA'
p147
aS'Blind Tiger Java Porter'
p148
aS'Blind Tiger Russian Imperial Stout'
p149
aS'Blind Tiger Top Gun IPA'
p150
aS'Block 15 Turbulent Consequence: Pche'
p151
aS'Blue Pants Pinstripe Candy Bar Stout'
p152
aS'Blue Pants Weedys Double IPA'
p153
aS'Bluegrass Bearded Pats Barleywine Style Ale'
p154
aS'Bluegrass Bourbon Barrel Russian Imperial Porter'
p155
aS'Bluegrass Bourbon Barrel Smoked Stout'
p156
aS'Bluegrass Cherry Inyouendo'
p157
aS'Bluegrass Russian Imperial Porter'
p158
aS'Bluejacket / Brooklyn / New Belgium Rheinard de Vos'
p159
aS'Bluejacket / Intangible Ales Gene Turns 10k'
p160
aS'Bluejacket / Intangible Ales Travlrs 12k'
p161
aS'Bluejacket A Little Golden Gem'
p162
aS'Bluejacket Further'
p163
aS'Bluejacket Lost Weekend'
p164
aS'Bluejacket Mexican Radio'
p165
aS'Bluejacket Mexican Radio (Whiskey Barrel Aged)'
p166
aS'Bluejacket P.X. Sherry Barrel-Aged High Society 2016'
p167
aS'Bluejacket Wallflower'
p168
aS'Bluejacket Wary Fiend'
p169
aS'Boneyard Notorious IPA3'
p170
aS'Boscos HopGod Ale'
p171
aS'Bosque (NM) Scale Tipper IPA'
p172
aS'Boulevard Smokestack Series: Saison-Brett'
p173
aS'Boundary Bay Imperial IPA'
p174
aS'Bozeman Bozone HopZone IPA'
p175
aS'Bozeman Bozone Plum St. Porter'
p176
aS'Brash Biggie Smalls Imperial Brown Ale'
p177
aS'Brash Cortado'
p178
aS'Brash Vulgar Display of Power'
p179
aS'Brau Brothers Rye Wyne Ale 2011'
p180
aS'Braxton Dead Blow - Starter Coffee'
p181
aS'Brenner Witchcraft Imperial Stout'
p182
aS'Brickway Vanilla Coffee Stout'
p183
aS'Bridge Brew Works Black Diamond Lager'
p184
aS'Bridge Brew Works Hellbender IPA'
p185
aS'Bridge Brew Works India Pale Ale'
p186
aS'Bridge Brew Works Momma Rye IPA'
p187
aS'Bridge Brew Works Moxxee Coffee Stout'
p188
aS'Bridge Brew Works Peregrine Porter'
p189
aS'Bridge Brew Works The Blunt'
p190
aS'Bridge Brew Works The Dun Glen Dubbel'
p191
aS'Bridge Brew Works Trubell'
p192
aS'Brooklyn Black Chocolate Stout'
p193
aS'Brooklyn Black Ops'
p194
aS'Bullfrog Et Tu Brut'
p195
aS'Bullfrog Le Roar Grrrz'
p196
aS'Bullfrog Le Roar Grrrz Aardbei'
p197
aS'Bullfrog Le Roar Grrrz Apricot'
p198
aS'Bullfrog Le Roar Grrrz Druiven'
p199
aS'Bullfrog Le Roar Grrrz Kriek'
p200
aS'Bullfrog Le Roar Grrrz Plum'
p201
aS'Burnt Hickory Charred Walls of the Damned'
p202
aS'COAST Blackbeerd Imperial Stout - Bourbon Barrel'
p203
aS'COAST Blackbeerd Imperial Stout - Jack Daniels Barrel'
p204
aS'COAST The Boy King Double IPA'
p205
aS'Captain Lawrence Cuvee de Castleton'
p206
aS'Captain Lawrence Rosso e Marrone'
p207
aS'Carters De-Railed IPA'
p208
aS'Carters Saison De Carter'
p209
aS'Carton 077XX'
p210
aS'Carton Dune Fruit'
p211
aS'Carton Epitome'
p212
aS'Carton Shipwreck Porter'
p213
aS'Cascade Noyaux'
p214
aS'Casey Brett Loves Citra'
p215
aS'Casey Dry Hopped Oak Theory - Galaxy & Simcoe'
p216
aS'Casey The Cut: Balaton Cherry'
p217
aS'Central Waters 17 Anniversary Edition'
p218
aS'Central Waters 18 Anniversary Edition'
p219
aS'Central Waters Ardea Insignis Imperial Stout'
p220
aS'Central Waters Black Gold'
p221
aS'Central Waters Brewers Reserve Bourbon Barrel Barleywine'
p222
aS'Central Waters Brewers Reserve Bourbon Barrel Scotch Ale'
p223
aS'Central Waters Brewers Reserve Bourbon Barrel Stout'
p224
aS'Chafunkta Old 504 Porter'
p225
aS'Chama River Anastasia Wine Barrel Aged Russian Imperial Stout'
p226
aS'Chama River Dangerous Intensions'
p227
aS'Chama River Imperial Red'
p228
aS'Chandeleur Curlews Toasted Coconut Porter'
p229
aS'Chandeleur Lil Smack IPA'
p230
aS'Chestnut Brew Works Halleck Pale Ale'
p231
aS'Chicago Hardway IPA'
p232
aS'Cigar City / Mikkeller Nielsbohrium'
p233
aS'Cigar City Caff Americano Double Stout'
p234
aS'Cigar City Cognac Barrel-Aged Imperial Sweet Stout'
p235
aS'Cigar City Hunahpus Imperial Stout'
p236
aS'Cigar City Hunahpus Imperial Stout - Double Barrel Aged'
p237
aS'Cigar City Marshal Zhukovs Imperial Stout'
p238
aS'Cigar City Marshal Zhukovs Imperial Stout - Bourbon Barrel'
p239
aS'Cigar City Marshal Zhukovs Penultimate Push'
p240
aS'Columbus Bodhi'
p241
aS'Community Barrel Aged Legion'
p242
aS'Core Barneys Imperial Red'
p243
aS'Core ESB'
p244
aS'Core Easy Livin IPA'
p245
aS'Core Hilltop IPA'
p246
aS'Core Oatmeal Stout'
p247
aS'Core Toasted Coconut Ale'
p248
aS'Country Boy 4th Anniversary Wild Red Ale'
p249
aS'Country Boy Infinite Sadness'
p250
aS'Country Boy Papaws Red Ale'
p251
aS'Creature Comforts Cosmik Debris'
p252
aS'Creature Comforts See The Stars'
p253
aS'Creature Comforts Tropiclia'
p254
aS'Crooked Letter Mystery Romp'
p255
aS'Crooked Stave Nightmare on Brett (Raspberry)'
p256
aS'Crooked Stave Petite Sour Hibiscus & Cinnamon (Apple/Peach Whiskey)'
p257
aS'Crooked Stave Raspberry Origins'
p258
aS'Crooked Stave Silly Cybies'
p259
aS'Crow Peak Bear Butte Brown Ale'
p260
aS'Crow Peak Canyon Cream Ale'
p261
aS'Crow Peak Easy Livin Summer Ale'
p262
aS'Crow Peak Eleventh Hour IPA'
p263
aS'Crow Peak Mjollnir'
p264
aS'Crow Peak Pile-O-Dirt Porter'
p265
aS'Crow Peak Redwater Ale'
p266
aS'Crow Peak Roughlocktoberfest'
p267
aS'Cycle &+'
p268
aS'Cycle / 3 Sons Rare Scooop'
p269
aS'Cycle Barrel-Aged Hazelnut Imperial Stout'
p270
aS'Cycle Four Roses BA Rye Stout'
p271
aS'Cycle Nooner #8'
p272
aS'Cycle Nooner #9'
p273
aS'Cycle Pallet 2'
p274
aS'Cycle RareR DOS'
p275
aS'Cycle Wednesday - 2016'
p276
aS'DC Brau / Oskar Blues Smells Like Freedom'
p277
aS'DC Brau Alpha Domina Mellis'
p278
aS'DC Brau For Others'
p279
aS'DC Brau On the Wings of Armageddon'
p280
aS'DC Brau Penn Quarter Porter'
p281
aS'DC Brau Solar Abyss'
p282
aS'Dangerous Man Peanut Butter Porter'
p283
aS'Dark Horse Bourbon Barrel Plead the 5th Imperial Stout'
p284
aS'De Garde / Side Project Saison Desay - Chardonnay Barrel'
p285
aS'De Garde Cherry Raz Bu'
p286
aS'De Garde Imperial Black Raz Bu'
p287
aS'De Garde Imperial Purple Raz Bu'
p288
aS'De Garde Nectarine Premiere'
p289
aS'De Garde The Anniversary'
p290
aS'De Garde The Broken Truck'
p291
aS'De Garde The Peach'
p292
aS'Deciduous Cumulation'
p293
aS'Deciduous Lambent'
p294
aS'Deciduous Renascence'
p295
aS'Defiance Fuzzy Knuckles'
p296
aS'Dempseys Longship Lager'
p297
aS'Dempseys Valkyrie Red'
p298
aS'Deschutes Black Butte XXVIII'
p299
aS'Deschutes The Abyss'
p300
aS'Deschutes The Abyss - Rye Whiskey'
p301
aS'Destihl Dosvidanya Russian Imperial Stout'
p302
aS'Devils Backbone / Wicked Weed Seven Summits'
p303
aS'Diamond Bear Dogtown Brown'
p304
aS'Diamond Bear Paradise Porter'
p305
aS'Diamond Bear Presidential IPA'
p306
aS'Diamond Bear Strawberry Blonde'
p307
aS'Diamond Bear Two Term Double IPA'
p308
aS'Dogfish Head 120 Minute IPA'
p309
aS'Dogfish Head 60 Minute IPA'
p310
aS'Dogfish Head 75 Minute IPA (Cask/Bottle)'
p311
aS'Dogfish Head 90 Minute Imperial IPA'
p312
aS'Dogfish Head Beer for Breakfast'
p313
aS'Dogfish Head Bitches Brew'
p314
aS'Dogfish Head Burton Baton'
p315
aS'Dogfish Head Immort Ale'
p316
aS'Dogfish Head Indian Brown Ale'
p317
aS'Dogfish Head Olde School Barleywine'
p318
aS'Dogfish Head Palo Santo Marron'
p319
aS'Dogfish Head Raison D Extra'
p320
aS'Dogfish Head Squall IPA'
p321
aS'Dogfish Head URKontinent'
p322
aS'Dogfish Head World Wide Stout 2001/2003-Present (18%)'
p323
aS'Dominion Millennium'
p324
aS'Dominion Millennium Oak Aged'
p325
aS'Dragoon Lazarus'
p326
aS'Draught Works Scepter Head IPA'
p327
aS'DuClaw Black Jack Stout'
p328
aS'DuClaw Oak Aged Black Jack Stout'
p329
aS'DuClaw Repent'
p330
aS'DuClaw Retribution'
p331
aS'Elysian Dragonstooth Stout'
p332
aS'Elysian Punkuccino Coffee Pumpkin Ale'
p333
aS'Elysian The Fix'
p334
aS'Epic / Crooked Stave Elder Brett Saison-Brett Golden Ale'
p335
aS'Epic / DC Brau Brainless: Corruption'
p336
aS'Epic Big Bad Baptist'
p337
aS'Epic Big Bad Baptista'
p338
aS'Epic Brainless IPA'
p339
aS'Epic Double Barrel Big Bad Baptist'
p340
aS'Epic Hopulent IPA'
p341
aS'Epic Imperial IPA'
p342
aS'Epic Imperial Red Ale'
p343
aS'Epic Imperial Stout'
p344
aS'Epic Old Sage Brett'
p345
aS'Epic Smoked & Oaked Belgian-Style Ale'
p346
aS'Epic Son of a Baptist'
p347
aS'Epic Sour Brainless on Peaches'
p348
aS'Evil Twin Auld Yin'
p349
aS'Evil Twin An Ms Caf Jess'
p350
aS'Evil Twin An Ms a Jess'
p351
aS'Evil Twin Double Barrel Jesus'
p352
aS'Evil Twin Even More Jesus'
p353
aS'Evil Twin Even More Jesus Port'
p354
aS'Evil Twin Imperial Biscotti Break'
p355
aS'Evil Twin Imperial Biscotti Break - Bourbon Barrel'
p356
aS'Evil Twin Imperial Biscotti Break - DeCicco Version'
p357
aS'Evil Twin Imperial Biscotti Break Raspberry Umami'
p358
aS'Evil Twin Imperial Doughnut Break'
p359
aS'Evil Twin Pappys Even More Jesus'
p360
aS'Evil Twin Pappys Imperial Biscotti Break'
p361
aS'Fairhope (Take The) Causeway IPA'
p362
aS'Fairhope Painted Black IPA'
p363
aS'Fargo Iron Horse Pale Ale'
p364
aS'Fargo Mighty Red'
p365
aS'Fargo Original Pale Lager'
p366
aS'Fargo OFest Oktoberfest Lager'
p367
aS'Fargo Roustabout Stout'
p368
aS'Fargo Sodbuster Porter'
p369
aS'Fargo Stones Throw Scottish Ale'
p370
aS'Fargo Super Green'
p371
aS'Fargo Wind Swept Belgian Witbier'
p372
aS'Fargo Wood Chipper IPA'
p373
aS'Fat Heads Head Hunter IPA'
p374
aS'Fat Heads Hop JuJu Imperial IPA'
p375
aS'Fernson Farmhouse Ale'
p376
aS'Fernson IPA'
p377
aS'Firehouse Brewers Golden'
p378
aS'Firehouse Brown Cow Ale'
p379
aS'Firehouse Buffalo Bitter'
p380
aS'Firehouse Chukkar Ale'
p381
aS'Firehouse Honey Rye Porter'
p382
aS'Firehouse Prodigy Porter'
p383
aS'Firehouse Red'
p384
aS'Firehouse Smoke Jumper Stout'
p385
aS'Firehouse Strong Arm Porter'
p386
aS'Firehouse Wilderness Wheat'
p387
aS'Firestone Walker Parabola'
p388
aS'Fish Tale 10 Anniversary Ale'
p389
aS'Fitgers Edmund Imperial Stout (Bourbon Barrel)'
p390
aS'Flathead Lake The Imperial IPA'
p391
aS'Flossmoor Station Pretty Big IPA'
p392
aS'Flying Dog Barrel-Aged Horn Dog'
p393
aS'Flying Dog Brewhouse Rarities: Smoked Belgian Stout'
p394
aS'Flying Dog Double Dog Double Pale Ale'
p395
aS'Flying Dog Gonzo Imperial Porter'
p396
aS'Flying Dog Imperial IPA - Citra Single Hop'
p397
aS'Flying Dog Kujo'
p398
aS'Flying Dog Wild Dog Barrel-Aged Gonzo'
p399
aS'Flying Fish Exit 16 WE Wild Rice Double IPA'
p400
aS'Foolproof Raincloud Porter'
p401
aS'Foolproof Revery Russian Imperial Stout'
p402
aS'Foolproof Shuckolate'
p403
aS'Foothills / Duck-Rabbit / Olde Hickory Olde Rabbits Foot'
p404
aS'Foothills Baltic Porter'
p405
aS'Foothills Barrel Aged Sexual Chocolate Imperial Stout'
p406
aS'Foothills Seeing Double IPA'
p407
aS'Foothills Sexual Chocolate Imperial Stout'
p408
aS'Forest & Main Paradisaea'
p409
aS'Fossil Cove La Brea Brown'
p410
aS'Foundation Epiphany IPA'
p411
aS'Founders Bourbon Barrel Imperial Stout'
p412
aS'Founders Breakfast Stout'
p413
aS'Founders Imperial Stout'
p414
aS'Founders KBS (Kentucky Breakfast Stout)'
p415
aS'Four Peaks Double Knot'
p416
aS'Free State Belgian Muse IPA'
p417
aS'Free State Black Jack Porter'
p418
aS'Free State C4 Imperial Black IPA'
p419
aS'Free State Cloud Hopper Imperial IPA'
p420
aS'Free State Hop Jack Ale'
p421
aS'Free State Hop Picker Pale Ale'
p422
aS'Free State Ironman Imperial Stout'
p423
aS'Free State Octoberfest'
p424
aS'Free State Old Backus Barleywine'
p425
aS'Free State Owd Macs Imperial Stout'
p426
aS'Free State Stormwatch Dark Ale'
p427
aS'Free State Winterfest IPA'
p428
aS'Freedoms Edge High Noon Chili Pepper Ale'
p429
aS'Freetail Raspberry Ananke'
p430
aS'Fremont Abominable - Bourbon Barrel'
p431
aS'Fremont Abominable - Bourbon Barrel Coffee Cinnamon'
p432
aS'Fremont Brew 1000'
p433
aS'Fremont Cowiche Canyon - Citra & Simcoe (Fresh Hop)'
p434
aS'Fremont Dark Star - Bourbon Barrel'
p435
aS'Fremont Dark Star - Bourbon Barrel Coffee Edition'
p436
aS'Fremont Dark Star - Bourbon Barrel Spice Wars'
p437
aS'Fremont Rusty Nail'
p438
aS'Funk Factory Geuzeria / Oso Frampaars'
p439
aS'Funk Factory Geuzeria / Oso Framrood'
p440
aS'Funky Buddha Last Buffalo in the Park'
p441
aS'Funky Buddha Last Snow Porter'
p442
aS'Funky Buddha Maple Bacon Coffee Porter'
p443
aS'Funky Buddha Morning Wood'
p444
aS'Funky Buddha Snowed In - Bourbon Barrel'
p445
aS'Funky Buddha Wide Awake Its Morning'
p446
aS'Good People Coffee Oatmeal Stout'
p447
aS'Good People El Gordo Imperial Stout'
p448
aS'Good People Fatso Imperial Stout'
p449
aS'Good People Hitchhiker American IPA'
p450
aS'Good People Snake Handler'
p451
aS'Goose Island Bourbon County Barleywine'
p452
aS'Goose Island Bourbon County Stout'
p453
aS'Goose Island Bourbon County Stout - Coffee'
p454
aS'Goose Island Bourbon County Stout - Rare 2015'
p455
aS'Goose Island Bourbon County Stout - Regal Rye Barrel'
p456
aS'Goose Island Bourbon County Stout - Templeton Rye Barrel'
p457
aS'Goose Island Cthulhu'
p458
aS'Goose Island Imperial IPA'
p459
aS'Goose Island Night Stalker'
p460
aS'Goose Island Nutulhu'
p461
aS'Grand Teton 5 OClock Shadow'
p462
aS'Grand Teton Black Cauldron Imperial Stout'
p463
aS'Grand Teton Brewers Series No. 2 - Brett Saison'
p464
aS'Grand Teton Double Vision Doppelbock'
p465
aS'Grand Teton Pursuit of Hoppiness'
p466
aS'Grand Teton Sheep Eater Scotch Ale'
p467
aS'Grand Teton Trout Hop Black IPA'
p468
aS'Grand Teton Wake Up Call Imperial Coffee Porter'
p469
aS'Grassroots Legitimacy'
p470
aS'Great Basin Hop Head Ale'
p471
aS'Great Basin Outlaw Milk Stout'
p472
aS'Great Basin Scytale 385'
p473
aS'Great Basin Tectonic Event IPA'
p474
aS'Great Divide Hercules Double IPA'
p475
aS'Great Divide Yeti Imperial Stout'
p476
aS'Great Divide Yeti Imperial Stout - Barrel Aged'
p477
aS'Great Divide Yeti Imperial Stout - Chocolate Oak Aged'
p478
aS'Great Divide Yeti Imperial Stout - Espresso Oak Aged'
p479
aS'Great Divide Yeti Imperial Stout - Oak Aged'
p480
aS'Great Lakes Blackout Stout - Barrel-Aged'
p481
aS'Great Lakes Chillwave Double IPA'
p482
aS'Great Raft All My Tomorrows'
p483
aS'Great Raft Reasonably Corrupt Schwarzbier'
p484
aS'Greenbrier Valley Devil Anse IPA'
p485
aS'Greenbrier Valley Mothman Black IPA'
p486
aS'Greenbrier Valley Wild & Wonderful Series #2: Hefeweizen'
p487
aS'Greenbrier Valley Wild Trail Pale Ale'
p488
aS'Grey Sail Captains Daughter'
p489
aS'Grey Sail Pour Judgement IPA'
p490
aS'Grey Sail Stargazer Imperial Stout'
p491
aS'Grimm Lambo Door'
p492
aS'Hair of the Dog Adam'
p493
aS'Hair of the Dog Adam from the Wood'
p494
aS'Hair of the Dog Cherry Adam from the Wood'
p495
aS'Hair of the Dog Doggie Claws (2003-)'
p496
aS'Hair of the Dog Fred from the Wood'
p497
aS'Hair of the Dog Otto from the Wood'
p498
aS'Half Acre Beer Hates Astronauts'
p499
aS'Half Acre Double Daisy Cutter'
p500
aS'Half Acre Galactic Double Daisy Cutter'
p501
aS'Hangar 24 Barrel Roll: Pugachev Royale'
p502
aS'Hardywood Apple Brandy Barrel GBS (Gingerbread Stout)'
p503
aS'Hardywood Bourbon Barrel Raspberry Stout With Vanilla Beans'
p504
aS'Hardywood Bourbon GBS (Gingerbread Stout)'
p505
aS'Hardywood Christmas Morning'
p506
aS'Hardywood Foolery'
p507
aS'Hardywood Gingerbread Stout'
p508
aS'Hardywood Kentucky Christmas Morning'
p509
aS'Hardywood Trickery'
p510
aS'Harvest Moon Oceanus Procellarum'
p511
aS'Haymarket Clares Thirsty Ale'
p512
aS'Haymarket Indignant Imperial Stout - Bourbon Barrel'
p513
aS'Healthberry Farm Honey River Tulip Poplar Mead'
p514
aS'Heavy Seas Uncharted Waters: Blackbeards Breakfast'
p515
aS'Heavy Seas Uncharted Waters: Siren Noire (2013 -)'
p516
aS'Highland Black Watch Double Chocolate Milk Stout'
p517
aS'Hill Farmstead Abner'
p518
aS'Hill Farmstead Ann'
p519
aS'Hill Farmstead Citra Single Hop Pale Ale'
p520
aS'Hill Farmstead Damon'
p521
aS'Hill Farmstead Dorothy - Wine Barrel Aged'
p522
aS'Hill Farmstead Double Citra'
p523
aS'Hill Farmstead Double Galaxy'
p524
aS'Hill Farmstead Ephraim'
p525
aS'Hill Farmstead Everett'
p526
aS'Hill Farmstead Flora - Plum'
p527
aS'Hill Farmstead Genealogy of Morals - Bourbon'
p528
aS'Hill Farmstead Juicy'
p529
aS'Hill Farmstead Society & Solitude #2'
p530
aS'Hill Farmstead Society & Solitude #3'
p531
aS'Hill Farmstead Society & Solitude #4'
p532
aS'Hill Farmstead Society & Solitude #5'
p533
aS'Hill Farmstead Society & Solitude #6'
p534
aS'Hill Farmstead Susan'
p535
aS'Hill Farmstead What Is Enlightenment?'
p536
aS'Hill Farmstead Works of Love (Sante Adairius - 2013)'
p537
aS'Holy Mountain Midnight Still - Cherry Rye'
p538
aS'Holy Mountain Midnight Still - Coffee Vanilla'
p539
aS'Holy Mountain Misre au Borinage'
p540
aS'Honolulu Beerworks South Shore Stout'
p541
aS'Hoppers Summerset Saison'
p542
aS'Hoppin Frog BORIS Batch #200'
p543
aS'Hoppin Frog BORIS The Crusher'
p544
aS'Hoppin Frog Barrel Aged BORIS Bairille Aois'
p545
aS'Hoppin Frog Barrel Aged BORIS Royale'
p546
aS'Hoppin Frog Barrel Aged BORIS The Crusher'
p547
aS'Hoppin Frog Barrel Aged BORIS Van Wink'
p548
aS'Hoppin Frog Barrel Aged DORIS The Destroyer'
p549
aS'Hoppin Frog Cafe BORIS'
p550
aS'Hoppin Frog DORIS The Destroyer'
p551
aS'Hoppin Frog Rocky Mountain BORIS'
p552
aS'Hoppin Frog TORIS The Tyrant: Triple Oatmeal Stout'
p553
aS'Humboldt Black Xantus'
p554
aS'Indeed D.I.D.D.C.W.Q.M.S'
p555
aS'Iron Hill Bourbon (Tom) Barleywine'
p556
aS'Iron Hill Bourbon Porter'
p557
aS'Iron Hill Imperial IPA'
p558
aS'Iron Hill Oak Aged Old Tom'
p559
aS'Iron Hill Oak Aged Quad'
p560
aS'Iron Hill Quadrupel (Quadfather)'
p561
aS'Iron Hill Russian Imperial Stout'
p562
aS'Iron Hill Sasquatch'
p563
aS'J. Wakefield Dragonfruit Passion Fruit (DFPF) Berliner Weisse'
p564
aS'J. Wakefield Miami Madness'
p565
aS'Jackie Os Bourbon Barrel Champion Ground'
p566
aS'Jackie Os Bourbon Barrel Dark Apparition'
p567
aS'Jackie Os Bourbon Barrel Oil Of Aphrodite'
p568
aS'Jackie Os Bourbon Barrel Oro Negro'
p569
aS'Jackie Os Coffee Bourbon Barrel Oil Of Aphrodite'
p570
aS'Jackie Os Iced Coffee Apparition'
p571
aS'Jackie Os Vanilla & Coffee Bean Bourbon Barrel Dark Apparition'
p572
aS'Jaipur Jalapeo Ale'
p573
aS'James E. Pepper 1776 American Brown Ale'
p574
aS'Jester King / Mikkeller Weasel Rodeo'
p575
aS'Jester King / Mikkeller Whiskey Barrel Rodeo'
p576
aS'Jester King Atrial Rubicite'
p577
aS'Jester King Aurelian Lure'
p578
aS'Jester King Bire de Blanc du Bois'
p579
aS'Jester King Bire de Syrah'
p580
aS'Jester King Montmorency vs. Balaton'
p581
aS'Jester King Nocturn Chrysalis (Batch 2+)'
p582
aS'Jester King Nocturn Chrysalis - Gin Barrel Aged'
p583
aS'Jester King Sherry Barrel Atrial Rubicite'
p584
aS'Jester King (Fn to)'
p585
aS'Joseph James 6th Anniversary Barrel-aged Rye Wine'
p586
aS'Joseph James Baby J German Chocolate Cake Stout'
p587
aS'Joseph James Barrel Smoker'
p588
aS'Joseph James Bourbon Barrel-Aged Russian Imperial Stout'
p589
aS'Joseph James Citra Rye Pale Ale'
p590
aS'Joseph James Im Out Imperial Stout'
p591
aS'Kane A Night To End All Dawns - Coconut'
p592
aS'Kane A Night to End All Dawns'
p593
aS'Kane A Night to End All Dawns - Cacao'
p594
aS'Kane A Night to End All Dawns - Coffee'
p595
aS'Kane A Night to End All Dawns - Vanilla Bean'
p596
aS'Kane Head High'
p597
aS'Kane Hop Lab #9 - Citra Pale Ale'
p598
aS'Kane Mexican Brunch'
p599
aS'Kane Overhead'
p600
aS'Kane Silent Nights'
p601
aS'Kane Sunday Brunch'
p602
aS'Karbach 003 Bourbon Barrel Hellfighter'
p603
aS'Kauai Island Captain Cooks IPA'
p604
aS'Kelsen Vendel Imperial Stout'
p605
aS'Kenco Farms Blue Mead'
p606
aS'Kettle House Olde Bongwater Hemp Porter'
p607
aS'Kona Black Sand Porter'
p608
aS'Kona Bourbon Barrel Aged Black Sand Porter'
p609
aS'Kona Da Grind Buzz Kona Coffee Imperial Stout'
p610
aS'Kona Old Blowhole Barley Wine'
p611
aS'Kona Pipeline Porter'
p612
aS'Kuhnhenn Bourbon Barrel French Toast Mead'
p613
aS'Kuhnhenn Fourth Dementia (4D) Old Ale - Bourbon Barrel'
p614
aS'La Cumbre Acclimated IPA'
p615
aS'La Cumbre Cafe Con Leche'
p616
aS'La Cumbre El Negro RIS'
p617
aS'La Cumbre Elevated IPA'
p618
aS'La Cumbre Father Nelson'
p619
aS'La Cumbre Full Nelson'
p620
aS'La Cumbre La Roja Grande'
p621
aS'La Cumbre Malpais Stout'
p622
aS'La Cumbre Project Dank'
p623
aS'La Cumbre Red Ryeot'
p624
aS'LaConner Olde Curmudgeon'
p625
aS'Lakewood Bourbon Barrel Temptress (BBT)'
p626
aS'Lakewood French Quarter Temptress'
p627
aS'Laughing Dog Anubis Imperial Coffee Porter'
p628
aS'Laughing Dog Devil Dog Imperial IPA'
p629
aS'Laughing Dog Hop Dog Harvest Pale Ale'
p630
aS'Laughing Dog Sneaky Pete Imperial IPA'
p631
aS'Laughing Dog The Dogfather Imperial Stout - Bourbon Barrel'
p632
aS'Laughing Sun Black Shox Porter'
p633
aS'Laughing Sun Cosmic Owl Belgian Pale Ale'
p634
aS'Laughing Sun Feast Like a Sultan IPA'
p635
aS'Laughing Sun Sinister Pear'
p636
aS'Laughing Sun Strawberry Wheat'
p637
aS'Lawsons Finest Double Sunshine IPA'
p638
aS'Lazy Magnolia 10'
p639
aS'Lazy Magnolia Black Creek Southern Style Imperial Stout'
p640
aS'Lazy Magnolia Ginger Jaque'
p641
aS'Lazy Magnolia Gulf Porter'
p642
aS'Lazy Magnolia Jefferson Stout'
p643
aS'Lazy Magnolia Me and the Dev-Ale'
p644
aS'Lazy Magnolia Southern Gentleman'
p645
aS'Lazy Magnolia Southern Hopspitality'
p646
aS'Lazy Magnolia Timber Beast'
p647
aS'Legend Imperial IPA'
p648
aS'Leinenkugels Big Eddy Russian Imperial Stout'
p649
aS'Lewis and Clark Tumbleweed IPA'
p650
aS'Library Rattlesnake Rye Pale Ale'
p651
aS'Lickinghole Creek Coconut Quadrupel Ale'
p652
aS'Lickinghole Creek Great Commander'
p653
aS'Lickinghole Creek Heir Apparent'
p654
aS'Lickinghole Creek Supreme Leader'
p655
aS'Lift Bridge Silhouette Bourbon Barrel Aged Russian Imperial Stout'
p656
aS'Liquid Bread Liberty Stout'
p657
aS'Liquid Bread Oatmeal Stout'
p658
aS'Logsdon Peche n Brett'
p659
aS'Lost Abbey Box Set: Track #10 (Bat out of Hell)'
p660
aS'Lost Abbey Box Set: Track #6 (Highway to Hell)'
p661
aS'Lost Abbey Cable Car'
p662
aS'Lost Abbey Duck Duck Gooze'
p663
aS'Lost Abbey The Angels Share - Bourbon Barrel'
p664
aS'Lost Forty Pale Ale'
p665
aS'Lost River Black Ale'
p666
aS'Lucky Bucket Barrel Aged Kriek'
p667
aS'Lucky Bucket Certified Evil 2010'
p668
aS'Lucky Bucket IPA'
p669
aS'Lucky Bucket Whiskey Barrel Aged Certified Evil'
p670
aS'Mad Fox Batch 100 Strong Black Ale'
p671
aS'Madhouse Carpe Diem'
p672
aS'Maine Beer Another One'
p673
aS'Maine Beer Dinner'
p674
aS'Maine Beer I'
p675
aS'Maine Beer II'
p676
aS'Maine Beer King Titus'
p677
aS'Maine Beer Lunch'
p678
aS'Maine Beer MO'
p679
aS'Maine Beer Weez'
p680
aS'Maine Beer Zoe'
p681
aS'Maple River Winery Country Crabapple Wine'
p682
aS'Maple River Winery Honey Apple Wine'
p683
aS'Maple River Winery Honeycomb Plum'
p684
aS'Marble Bourbon Barrel-Aged Imperial Stout'
p685
aS'Marble D.I.P.A.'
p686
aS'Marble Imperial Red Ale'
p687
aS'Marble Imperial Stout'
p688
aS'Marble India Pale Ale'
p689
aS'Marble Reserve Ale'
p690
aS'Maui Brewing Aloha Baktun'
p691
aS'Maui Brewing Big Swell IPA'
p692
aS'Maui Brewing Cascadian Dark Belgian Rye IPA'
p693
aS'Maui Brewing Coconut Hiwa Porter'
p694
aS'Maui Brewing Double Overhead IPA'
p695
aS'Maui Brewing Freight Trains IPA'
p696
aS'Maui Brewing Heaven & Hell Barleywine'
p697
aS'Maui Brewing Hop Kine'
p698
aS'Maui Brewing Imperial CoCoNut PorTeR'
p699
aS'Maui Brewing KGB Woody'
p700
aS'Maui Brewing Lorenzini Double IPA (6th Sense)'
p701
aS'Maui Brewing Shipwreck Stout'
p702
aS'McFate Imperial Candy Bar Stout - Barrel Aged'
p703
aS'Medovina Sweet Melissa'
p704
aS'Melovino Southern Berry'
p705
aS'Melvin 2x4'
p706
aS'Melvin Asterisk Double IPA'
p707
aS'Melvin Brosaic'
p708
aS'Melvin Clinic ISA'
p709
aS'Melvin Drunken Master'
p710
aS'Melvin Hubert MPA'
p711
aS'Melvin IPA'
p712
aS'Melvin Killer Bees'
p713
aS'Melvin Shaolin Brew IPA'
p714
aS'Midnight Sun 2007 Deadly Sins: Sloth'
p715
aS'Midnight Sun 2009 Crew Brews: Brewtality'
p716
aS'Midnight Sun 2010 Pop Ten: Barfly'
p717
aS'Midnight Sun 2014 Alaskana Series: Termination Dust'
p718
aS'Midnight Sun Arctic Devil'
p719
aS'Midnight Sun Berserker'
p720
aS'Midnight Sun Monks Mistress'
p721
aS'Midnight Sun Monks Mistress (Bourbon)'
p722
aS'Midnight Sun Moscow'
p723
aS'Midnight Sun T.R.E.A.T. Imperial Chocolate Pumpkin Porter'
p724
aS'Midnight Sun XXX Black Double IPA'
p725
aS'Montana Brewing Beartooth Espresso Porter'
p726
aS'Montana Brewing Custers Last Stout'
p727
aS'Moody Brews Half Seas Over Imperial IPA'
p728
aS'Moonlight Meadery Destiny'
p729
aS'Moonlight Meadery Kurts Apple Pie'
p730
aS'Morgantown Andersons Kettle Bottom Brown Ale'
p731
aS'Morgantown Coal City Stout'
p732
aS'Morgantown First Shift Coffee Porter'
p733
aS'Morgantown Zack Morgans IPA'
p734
aS'Mothers MILF'
p735
aS'Mountain Dragon Tulip Poplar Honey Mead'
p736
aS'NOLA / 7venth Sun House of the Rising'
p737
aS'NOLA Girl Stout Cookie'
p738
aS'NOLA Irish Channel Stout'
p739
aS'NOLA Lowerline'
p740
aS'NOLA Piety'
p741
aS'NOLA Sauvage'
p742
aS'Narragansett Autocrat Coffee Milk Stout'
p743
aS'Narragansett Private Stock Imperial Russian Stout'
p744
aS'Nebraska Apricot Au Poivre Saison'
p745
aS'Nebraska HopAnomaly'
p746
aS'Nebraska Inception Series #08 - Blanc is The New White'
p747
aS'Nebraska Inception Series Ardent Son'
p748
aS'Nebraska Inception Series Franc Blanc'
p749
aS'Nebraska Inception Series Runnin with the Devil'
p750
aS'Nebraska Inception Series Tart Apricot Saison'
p751
aS'Nebraska India Pale Ale (2011- )'
p752
aS'Nebraska Little Betty Russian Imperial Stout'
p753
aS'Nebraska New Oak-aged Rye IPA'
p754
aS'Nebraska Reserve Series Barrel Aged Fathead'
p755
aS'Nebraska Reserve Series Barrel Aged HopAnomaly'
p756
aS'Nebraska Reserve Series Black Betty Russian Imperial Stout'
p757
aS'Nebraska Reserve Series Melange A Trois'
p758
aS'Nebraska Reserve Series Responsibly'
p759
aS'Nebraska Reserve Series Sexy Betty'
p760
aS'New Belgium La Folie'
p761
aS'New Belgium Love - Felix-Oscar Blend - Blackberry Whiskey Barrel'
p762
aS'New England 668 Chardonneighbor Of The Beast'
p763
aS'New England Coriolis'
p764
aS'New England Fuzzy Baby Ducks IPA'
p765
aS'New England G-Bot Double IPA'
p766
aS'New England Galaxy Pale Ale'
p767
aS'New England Imperial Stout Trooper'
p768
aS'New England Imperial Stout Trooper (Bourbon)'
p769
aS'New England Locust Reign'
p770
aS'New England Supernaut IPA'
p771
aS'New Glarus Dancing Man Wheat'
p772
aS'New Glarus R & D Vintage 2014'
p773
aS'New Glarus R & D Wild Peach'
p774
aS'New Glarus Raspberry Tart'
p775
aS'New Glarus Serendipity'
p776
aS'New Glarus Thumbprint Series Cran-bic Ale'
p777
aS'New Glarus Thumbprint Series IIPA'
p778
aS'New Glarus Thumbprint Series Scream IIPA'
p779
aS'New Glarus Thumbprint Series Wild Sour Ale'
p780
aS'New Glarus Wisconsin Belgian Red'
p781
aS'Newport Storm Cyclone Series Vlad'
p782
aS'Newport Storm Cyclone Series Zach'
p783
aS'NoDa Hop, Drop n Roll IPA'
p784
aS'North Coast Old Rasputin (Bourbon Barrel)'
p785
aS'North End Dawks Classic Porter'
p786
aS'OEC Aeris'
p787
aS'OEC Aeris Singularis (Pinot Noir/Gin Barrel)'
p788
aS'OEC Albus'
p789
aS'OEC Artista Zynergia: Gosatequin (Blend #1)'
p790
aS'OEC Artista Zynergia: Oudilis'
p791
aS'OEC Exilis'
p792
aS'OEC Experimentalis With Meyer Lemons (Pinot Noir/Gin Barrel)'
p793
aS'OEC Experimentalis with Peaches (Pedro Ximenez Barrel)'
p794
aS'OEC Nepenthes'
p795
aS'Old Schoolhouse Imperial Stout'
p796
aS'Olde Hickory The Event Horizon'
p797
aS'Oskar Blues Ten FIDY'
p798
aS'Oskar Blues Ten FIDY - Barrel Aged'
p799
aS'Oskar Blues Ten FIDY - Stranahans Colorado Whiskey Barrel'
p800
aS'Other Half Double Mosaic Dream'
p801
aS'Other Half Mosaic'
p802
aS'Ottos Bourbon-Barrel Aged Jolly Roger Imperial Stout'
p803
aS'Oxbow / Stillwater Stillbow Oxtisanal'
p804
aS'Ozark American Pale Ale'
p805
aS'Ozark Bourbon Barrel Aged Double Cream Stout'
p806
aS'Ozark Cream Stout'
p807
aS'Ozark Onyx Coffee Stout'
p808
aS'Parish Dr Hoptagon'
p809
aS'Parish Envie Pale Ale'
p810
aS'Parish Farmhouse IPA'
p811
aS'Parish Ghost In The Machine'
p812
aS'Parish Grand Reserve'
p813
aS'Parish Opus Vert'
p814
aS'Payette 12 Gauge Imperial Stout'
p815
aS'Payette 12 Gauge Imperial Stout - Barrel Aged'
p816
aS'Peace Tree Hop Sutra'
p817
aS'Peace Tree No Coast IPA'
p818
aS'Pelican Mother of all Storms'
p819
aS'Perennial Abraxas'
p820
aS'Perennial Barrel Aged Abraxas'
p821
aS'Perennial Barrel Aged Sump'
p822
aS'Perennial Barrel Aged Sump (Rwandan Kyoto)'
p823
aS'Perennial Blue Label Maman - Evan Williams 23'
p824
aS'Perennial Coffee Abraxas'
p825
aS'Perennial Maman'
p826
aS'Perennial Sump'
p827
aS'Perennial Vanilla Abraxas'
p828
aS'Perrin No Rules Vietnamese Porter'
p829
aS'Pike XXXXX Stout'
p830
aS'Pipeworks Citra Imperial IPA'
p831
aS'Pipeworks Crimson Snapper'
p832
aS'Pipeworks Emerald Grouper'
p833
aS'Pipeworks Ninja Vs Unicorn Double IPA'
p834
aS'Pipeworks Unicorn Galaxy Imperial IPA'
p835
aS'Pisgah Valdez'
p836
aS'Pizza Boy Sunny Side Up - Double Coffee'
p837
aS'Pointe of View Winery Apple Wine'
p838
aS'Pointe of View Winery Dry Apple Wine'
p839
aS'Pointe of View Winery H2BC'
p840
aS'Pointe of View Winery Honey Wine with Elderflowers'
p841
aS'Pointe of View Winery Semi-Dry Honey Wine'
p842
aS'Pointe of View Winery Sweet Honey Wine'
p843
aS'Pointe of View Winery Viking Deed'
p844
aS'Port Brewing Older Viscosity'
p845
aS'Portsmouth Barleywine'
p846
aS'Portsmouth Royal Impy Stout'
p847
aS'Prairie / Evil Twin Bible Belt'
p848
aS'Prairie Americana'
p849
aS'Prairie Apple Brandy Barrel Noir'
p850
aS'Prairie Berry Raspberry Honeywine'
p851
aS'Prairie Bomb!'
p852
aS'Prairie Bomb! - Balcones Barrel Aged'
p853
aS'Prairie Bomb! - Barrel Aged'
p854
aS'Prairie Brett C.'
p855
aS'Prairie Coffee Okie'
p856
aS'Prairie Freds Blend'
p857
aS'Prairie Funky Gold Amarillo'
p858
aS'Prairie Funky Gold Mosaic'
p859
aS'Prairie Funky Gold Simcoe'
p860
aS'Prairie Okie'
p861
aS'Prairie Paradise'
p862
aS'Prairie Pirate Bomb!'
p863
aS'Prairie Pirate Noir'
p864
aS'Prairie Prairie Hop'
p865
aS'Prairie Prairie Noir'
p866
aS'Prairie Wine Barrel Noir'
p867
aS'Prairie Merica'
p868
aS'Proclamation Derivative Citra Hopped Pale Ale'
p869
aS'Proclamation Derivative Galaxy Hopped Pale Ale'
p870
aS'Proclamation Derivative Mosaic Hopped Pale Ale'
p871
aS'Proclamation Keraterra (Citra/Amarillo)'
p872
aS'Proclamation Postcursor'
p873
aS'Proclamation Tendril'
p874
aS'Proclamation Zzzlumber - Barrel-Aged'
p875
aS'Proclamation zzzlumber'
p876
aS'Quaff Bros Full Allotment'
p877
aS'Ramstein Eis Storm Eisbock'
p878
aS'Ramstein Winter Wheat'
p879
aS'Real Ale The Kraken'
p880
aS'Reaver Beach The Kracken'
p881
aS'Red Brick 20th Anniversary'
p882
aS'Red Rock Paardebloem'
p883
aS'Revival Burnsider Pale Ale'
p884
aS'Revival Double Black IPA'
p885
aS'Revival White Electric Coffee Stout'
p886
aS'Revolution Barrel Aged Institutionalized Barley Wine'
p887
aS'Revolution Deths Tar'
p888
aS'Revolution Gravedigger Billy'
p889
aS'Right Proper Diamonds, Fur Coat, Champagne'
p890
aS'Right Proper Kick.Kick.Snare'
p891
aS'Right Proper Kodachrome Dream(ing)'
p892
aS'Right Proper The Lubitsch Touch'
p893
aS'Rogue Double Chocolate Stout'
p894
aS'Roughtail Hoptometrist Double India Pale Ale'
p895
aS'Russian River Beatification (Batch 002 +)'
p896
aS'Russian River Consecration'
p897
aS'Russian River Pliny the Elder'
p898
aS'Russian River Pliny the Younger'
p899
aS'Russian River Supplication'
p900
aS'SPB Cicada Series 2014 IPA'
p901
aS'SPB Cicada Series 2015 IPA'
p902
aS'SPB Cicada Series Hipster Breakfast'
p903
aS'SPB Cicada Series Rgana Baltic Porter'
p904
aS'SPB Cicada Series Suzy Smash'
p905
aS'SPB Crowd Control'
p906
aS'SPB Devils Harvest American Pale Ale (Redux) (2016 - )'
p907
aS'SPB Devils Harvest Extra Pale Ale (-2016)'
p908
aS'SPB Jack the Sipper'
p909
aS'SPB Lazarus'
p910
aS'SPB Mississippi Fire Ant'
p911
aS'SPB Mississippi Fire Ant: Bourbon Barrel Aged'
p912
aS'SPB Sinister Minister'
p913
aS'Saint Arnold Bishops Barrel #1'
p914
aS'Saint Arnold Bishops Barrel #8'
p915
aS'Saint Arnold Divine Reserve #15'
p916
aS'Saint James Daily Wages'
p917
aS'Saint James Plum Lambic'
p918
aS'Salty Nut Dahkness Stout'
p919
aS'Samuel Adams Utopias'
p920
aS'Santa Fe Barrel Aged Sour State Pen Porter'
p921
aS'Santa Fe Imperial Java Stout'
p922
aS'Santa Fe Los Innovadores Kriek'
p923
aS'Santa Fe State Pen Imperial Porter'
p924
aS'Santa Fe Wild Ale #6 (Bordeaux Series)'
p925
aS'Schell Noble Star - Starkeller Peach'
p926
aS'Schramms Apple'
p927
aS'Schramms Black Agnes'
p928
aS'Schramms Cranberry'
p929
aS'Schramms Madeline'
p930
aS'Schramms Raspberry'
p931
aS'Schramms Red Agnes'
p932
aS'Schramms The Heart of Darkness'
p933
aS'Schramms The Statement'
p934
aS'Schramms The Statement - Reserve'
p935
aS'Selins Grove Bourbon St. Fillans Wee Heavy'
p936
aS'Selins Grove Pumpkin Ale'
p937
aS'Selins Grove The Phoenix Kriek'
p938
aS'Selkirk Abbey Infidel'
p939
aS'Sick N Twisted Hop On Top IPA'
p940
aS'Sick N Twisted Panty Droppin Porter'
p941
aS'Side Project / De Garde Orviamo'
p942
aS'Side Project Abricot du Fermier'
p943
aS'Side Project Blanc de Blancs'
p944
aS'Side Project Bleuet du Fermier'
p945
aS'Side Project Derivation Blend #1'
p946
aS'Side Project Derivation Blend #2'
p947
aS'Side Project Derivation Blend #3'
p948
aS'Side Project Framboise du Fermier'
p949
aS'Side Project Fuzzy'
p950
aS'Side Project One Candle'
p951
aS'Side Project Saison du Bl'
p952
aS'Side Project Saison du Fermier'
p953
aS'Side Project Thicket'
p954
aS'Side Project Unblended (Barrel #40)'
p955
aS'Silver City Le Fat'
p956
aS'Silver Peak Peavine Porter'
p957
aS'Smuttynose Baltic Porter'
p958
aS'Smuttynose Big A IPA'
p959
aS'Smuttynose Big Beer Series: Imperial Stout'
p960
aS'Smuttynose Big Beer Series: Rocky Road Stout'
p961
aS'Smuttynose Julios Fashionably Old Ale'
p962
aS'Smuttynose Robust Porter'
p963
aS'Smuttynose Smuttlabs Apple Brandy Barrel Aged Gravitation'
p964
aS'Smuttynose Smuttlabs Imperial Stout'
p965
aS'Smuttynose Smuttlabs Shebang'
p966
aS'Snake River Danimals Farmhouse Saison'
p967
aS'Snake River Le Serpent'
p968
aS'Snake River Le Serpent Cerise'
p969
aS'Snake River Le Serpent Framboise'
p970
aS'Snake River Pakos IPA'
p971
aS'Snake River Zonker Stout'
p972
aS'Sockeye Barrel Aged Seven Devils Imperial Stout'
p973
aS'Sockeye Big Creek Trappist'
p974
aS'Sockeye Dagger Falls IPA'
p975
aS'Sockeye Double Dagger IIPA (Fresh Hop)'
p976
aS'Sockeye Hopnoxious Imperial IPA'
p977
aS'Southampton Imperial Russian Stout'
p978
aS'Southern Tier Blackwater Series: Choklat'
p979
aS'Southern Tier Blackwater Series: Mokah'
p980
aS'Southern Tier Imperial Oat'
p981
aS'Southern Tier Oaked Pumking'
p982
aS'Squatters 529'
p983
aS'Squatters Fifth Element'
p984
aS'Squatters Outer Darkness'
p985
aS'Steel Toe Before the Dawn'
p986
aS'Stillwater / Casita Cerveceria On Fleek'
p987
aS'Stillwater / Mikkeller Rauchstar'
p988
aS'Stillwater Barrel Aged Series - Cellar Door'
p989
aS'Stillwater Barrel Aged Series - Folklore, the tale of Van Winkle'
p990
aS'Stillwater Barrel Aged Series - Stateside Saison'
p991
aS'Stillwater Beer Table - Table Beer'
p992
aS'Stillwater Contemporary Works - Surround'
p993
aS'Stillwater Even Less Jesus (Remix)'
p994
aS'Stillwater G13'
p995
aS'Stillwater Give-Way'
p996
aS'Stillwater Gose Gone Wild'
p997
aS'Stillwater Import Series Vol. 5 Debauched - Brunello Barrel'
p998
aS'Stone Imperial Russian Stout'
p999
aS'Stone Imperial Russian Stout - Bourbon Barrel'
p1000
aS'Stoneface Hopulization'
p1001
aS'Stoneface IPA'
p1002
aS'Stoneface Mozaccalypse'
p1003
aS'Stoneface Porter'
p1004
aS'Stoneface RIS'
p1005
aS'Stoneface RIS - Bourbon Barrel Aged'
p1006
aS'Straight To Ale Gorillanaut Imperial IPA'
p1007
aS'Straight To Ale He Aint Heffe'
p1008
aS'Straight To Ale Illudium'
p1009
aS'Straight To Ale Laika Russian Imperial Stout'
p1010
aS'Straight To Ale Laika Russian Imperial Stout - Bourbon Barrel Aged'
p1011
aS'Straight To Ale Laika Russian Imperial Stout - Cabernet Barrel Aged'
p1012
aS'Straight To Ale Monkeynaut IPA'
p1013
aS'Straight To Ale Monkeys Uncle IIPA'
p1014
aS'Straight To Ale Unobtanium'
p1015
aS'Straight To Ale Velvet Evil'
p1016
aS'Straight To Ale Verns Wheat Wine'
p1017
aS'Sun Up White Russian Imperial Stout'
p1018
aS'Superstition Aphrodisia Pyment - Cabernet'
p1019
aS'Superstition Aphrodisia Pyment - Cabernet/Pinot Noir/Syrah'
p1020
aS'Superstition Aphrodisia Pyment - Cabernet/Syrah'
p1021
aS'Superstition Aphrodisia Pyment - Syrah/Grenache'
p1022
aS'Superstition Berry White'
p1023
aS'Superstition Black Berry White'
p1024
aS'Superstition Blue Berry White'
p1025
aS'Superstition Date Night'
p1026
aS'Superstition Endovelicus'
p1027
aS'Superstition Framboesa Atando'
p1028
aS'Superstition Fruit of Venus'
p1029
aS'Superstition Grand Cru Berry'
p1030
aS'Superstition Marion Mead - Sparkling'
p1031
aS'Superstition Marion Mead - Still'
p1032
aS'Superstition Peanut Butter Jelly Crime'
p1033
aS'Superstition Straw Berry White'
p1034
aS'Superstition Super Bee'
p1035
aS'Surly / Amager Todd - The Axe Man (Surly Version)'
p1036
aS'Surly Abrasive Ale'
p1037
aS'Surly Blakkr'
p1038
aS'Surly Darkness'
p1039
aS'Surly Darkness 2014 - Bottled'
p1040
aS'Surly Four'
p1041
aS'Surly Furious'
p1042
aS'Surly Wet 2012 & 2015'
p1043
aS'Sweetwater Bourbon Barrel Aged Imperial Stout'
p1044
aS'Sweetwater Dank Tank Johnny Hash'
p1045
aS'Sweetwater Dank Tank Some Strange'
p1046
aS'Sweetwater Tavern Barrel Aged High Desert Imperial Stout'
p1047
aS'Sweetwater Tavern High Desert Imperial Stout'
p1048
aS'Tallgrass 16-Bit DPA'
p1049
aS'Tallgrass Big Ricc'
p1050
aS'Tallgrass Ethos IPA'
p1051
aS'Tallgrass Vanilla Bean Buffalo Sweat'
p1052
aS'Tallgrass Vanilla Bean Buffalo Sweat - Bourbon Barrel & Cinnamon'
p1053
aS'Tallgrass Wooden Rooster'
p1054
aS'Tallgrass Zombie Monkie'
p1055
aS'Tenaya Creek Hop Ride IPA'
p1056
aS'Tenaya Creek Imperial Stout'
p1057
aS'Tenaya Creek Monsoon Double IPA'
p1058
aS'Tenaya Creek Old Jackalope Barleywine'
p1059
aS'Tenaya Creek Red Ryder'
p1060
aS'Tenaya Creek Tandem Double India Pale Ale'
p1061
aS'Terminal BrewHouse Magnum PA'
p1062
aS'Terminal BrewHouse Southsidenstein Stout'
p1063
aS'Terminal BrewHouse The White Shadow'
p1064
aS'Terrapin Big Hoppy Monster'
p1065
aS'Terrapin Cinnamon Rolld Wake-n-Bake'
p1066
aS'Terrapin French Toasted W-n-B Coffee Oatmeal Imperial Stout'
p1067
aS'Terrapin Oaked Aged Rye Squared'
p1068
aS'Terrapin Oaked Wake-n-Bake Coffee Oatmeal Imperial Stout'
p1069
aS'Terrapin Rye Squared'
p1070
aS'Terrapin Side Project Hopzilla Double IPA'
p1071
aS'Terrapin Substance Abuse Ale'
p1072
aS'Terrapin Tiramisu-Hoo'
p1073
aS'Terrapin Wake-n-Bake Coffee Oatmeal Imperial Stout'
p1074
aS'The Duck-Rabbit Baltic Porter'
p1075
aS'The Front Mountain Man Scotch Ale'
p1076
aS'The Livery Bourbon Barrel Aged Wheat Trippelbock'
p1077
aS'The Veil Crucial Taunt Double IPA'
p1078
aS'The Veil Master Master Shredder Shredder'
p1079
aS'Thirsty Dog Siberian Night Imperial Stout'
p1080
aS'Thomas Hooker Imperial Porter'
p1081
aS'Thomas Hooker Liberator Doppelbock'
p1082
aS'Three Floyds / The Bruery Rue DFloyd'
p1083
aS'Three Floyds Alpha King'
p1084
aS'Three Floyds Alpha Klaus'
p1085
aS'Three Floyds Arctic Panzer Wolf'
p1086
aS'Three Floyds Baller Stout'
p1087
aS'Three Floyds Behemoth'
p1088
aS'Three Floyds Behemoth - Bourbon Barrel'
p1089
aS'Three Floyds Blakkr'
p1090
aS'Three Floyds Bourbon Barrel Aged Dark Lord De Muerte'
p1091
aS'Three Floyds BrooDoo'
p1092
aS'Three Floyds Dark Lord Russian Imperial Stout'
p1093
aS'Three Floyds Dark Lord Russian Imperial Stout (Aquavit Barrel Aged)'
p1094
aS'Three Floyds Dark Lord Russian Imperial Stout (Bourbon Barrel Aged)'
p1095
aS'Three Floyds Dark Lord Russian Imperial Stout (Bourbon Vanilla Bean)'
p1096
aS'Three Floyds Dark Lord Russian Imperial Stout (Cognac Coffee)'
p1097
aS'Three Floyds Dreadnaught Imperial IPA'
p1098
aS'Three Floyds French Vanilla Militia'
p1099
aS'Three Floyds Permanent Funeral'
p1100
aS'Three Floyds Quit Hitting Yourself'
p1101
aS'Three Floyds Ronaldo (2016 Dark Lord Variant)'
p1102
aS'Three Floyds Rye Da Tiger'
p1103
aS'Three Floyds Zombie Dust'
p1104
aS'Three Notchd Biggie Smores Imperial Stout'
p1105
aS'Thunder Canyon Warhead Stout'
p1106
aS'Thunderhead Espresso Stout'
p1107
aS'Tired Hands Pineal IPA'
p1108
aS'Tired Hands Sticky Drippy Crystals'
p1109
aS'Tired Hands Virgins & Diamonds'
p1110
aS'Tired Hands We Are All Infinite Energy Vibrating at the Same Frequency'
p1111
aS'Toppling Goliath / Mikkeller Nelson Schmelsson'
p1112
aS'Toppling Goliath / Tree House David'
p1113
aS'Toppling Goliath Galaxy Dry Hopped pseudoSue'
p1114
aS'Toppling Goliath Golden Nugget IPA'
p1115
aS'Toppling Goliath Hopsmack!'
p1116
aS'Toppling Goliath Intergalactic Warrior IPA'
p1117
aS'Toppling Goliath King Sue'
p1118
aS'Toppling Goliath Light Speed Pale Ale'
p1119
aS'Toppling Goliath Mornin Delight'
p1120
aS'Toppling Goliath Mosaic Dry Hopped pseudoSue'
p1121
aS'Toppling Goliath Pompeii IPA'
p1122
aS'Toppling Goliath ReGifter Double IPA'
p1123
aS'Toppling Goliath Sol Hunter Pale Ale'
p1124
aS'Toppling Goliath Sosus'
p1125
aS'Toppling Goliath Thresher IPA'
p1126
aS'Toppling Goliath Twisted Galaxy'
p1127
aS'Toppling Goliath XHops Series - Gold'
p1128
aS'Toppling Goliath XHops Series - Green'
p1129
aS'Toppling Goliath Xhops Series - Gamma'
p1130
aS'Toppling Goliath ZeeLander'
p1131
aS'Toppling Goliath pseudoSue'
p1132
aS'Toppling Goliath pseudoSue - Citra Double Dry Hopped'
p1133
aS'Town Hall Coconut Milk Stout'
p1134
aS'Town Hall Czar Jack Imperial Stout'
p1135
aS'Town Hall Masala Mama IPA'
p1136
aS'Town Hall Ol Jack Frost'
p1137
aS'Town Hall Russian Roulette'
p1138
aS'Town Hall Twisted Trace'
p1139
aS'Town Hall Wee Heavy'
p1140
aS'Tree House Alter Ego'
p1141
aS'Tree House Doppelganger'
p1142
aS'Tree House Double Shot'
p1143
aS'Tree House Good Morning'
p1144
aS'Tree House Green'
p1145
aS'Tree House Haze'
p1146
aS'Tree House In Perpetuity'
p1147
aS'Tree House Juice Machine (2015- )'
p1148
aS'Tree House Julius'
p1149
aS'Tree House Very Hazy'
p1150
aS'Trillium Congress Street IPA'
p1151
aS'Trillium Congress Street IPA - Double Dry Hopped'
p1152
aS'Trillium Fort Point Pale Ale'
p1153
aS'Trillium Fort Point Pale Ale - Double Dry Hopped'
p1154
aS'Trillium Fort Point Pale Ale - Galaxy Dry Hopped'
p1155
aS'Trillium Fort Point Pale Ale - Mosaic Dry Hopped'
p1156
aS'Trillium Headroom'
p1157
aS'Trillium Melcher Street IPA'
p1158
aS'Trillium Melcher Street IPA - Double Dry Hopped'
p1159
aS'Trillium Mettle'
p1160
aS'Trillium Scaled - Double Dry Hopped'
p1161
aS'Trillium Summer Street IPA - Double Dry Hopped'
p1162
aS'Trillium Upper Case'
p1163
aS'Trillium Vicinity'
p1164
aS'Trinity Decadence Imperial IPA'
p1165
aS'Trinity Russian Imperial Stout'
p1166
aS'Triple 7 Marker Pale Ale'
p1167
aS'Triumph Coffee & Cream Stout'
p1168
aS'Triumph Imperial Stout'
p1169
aS'Triumph Jewish Rye Beer'
p1170
aS'Triumph Rauchweizen'
p1171
aS'Tregs Nugget Nectar Ale'
p1172
aS'Turtle Anarchy Another Way to Rye'
p1173
aS'Two Roads Igors Dream - Rye Whiskey Barrel Aged'
p1174
aS'Two Roads Unorthodox'
p1175
aS'Tyranena BGW Devil Over A Barrel'
p1176
aS'Tyranena BGW Dirty Old Man'
p1177
aS'Tyranena BGW The Devil Made Me Do It'
p1178
aS'Tyranena BGW Whos Your Daddy? Bourbon Barrel-Aged Imperial Porter'
p1179
aS'Uinta Crooked Line Cockeyed Cooper'
p1180
aS'Uinta Crooked Line Labyrinth Black Ale'
p1181
aS'Uinta Crooked Line Oak Jacked Imperial Pumpkin'
p1182
aS'Uinta Crooked Line Sea Legs Baltic Porter'
p1183
aS'Uinta Crooked Line Stompin Grounds Coffee Stout'
p1184
aS'Uinta Dubhe Imperial Black IPA'
p1185
aS'Union Station Half Day IPA'
p1186
aS'Union Station Vanilla Bean Porter'
p1187
aS'Upright Fantasia'
p1188
aS'Upright Flora Rustica (Barrel Aged)'
p1189
aS'Upstream Gianduja Imperial Rye Brown Ale'
p1190
aS'Upstream Grand Cru'
p1191
aS'Urban Family Lady of the Night'
p1192
aS'Victory Old Horizontal'
p1193
aS'Victory Storm King Imperial Stout'
p1194
aS'Vinos Holidaze'
p1195
aS'Vinos Imperial Stout'
p1196
aS'Vinos Lazyboy Stout'
p1197
aS'Vinos Octoberfest'
p1198
aS'Vinos Pinnacle IPA'
p1199
aS'Vinos Rainbow Wheat'
p1200
aS'Vinos Rock Hopera Imperial IPA'
p1201
aS'Voodoo Grande Negro Voodoo Papi (Bourbon Barrel Aged)'
p1202
aS'Voodoo Grande Negro Voodoo Papi (Lairds Apple Brandy)'
p1203
aS'Voodoo ManBearPig'
p1204
aS'Voodoo The K13'
p1205
aS'Walking Man Jaywalker Russian Imperial Stout'
p1206
aS'Warped Wing Baltic Argonaut'
p1207
aS'WeldWerks Coffee Maple Achromatic'
p1208
aS'West Sixth IPA'
p1209
aS'West Sixth Snake Eyes Imperial Stout'
p1210
aS'West Sixth Snakes In A Barrel'
p1211
aS'Westbrook / Evil Twin Mini Growler'
p1212
aS'Westbrook 2nd Anniversary Capn Skoons Ballistic Stout'
p1213
aS'Westbrook 2nd Anniversary Capn Skoons Ballistic Stout - Bourbon Barrel'
p1214
aS'Westbrook 4th Anniversary - Bourbon Barrel Aged'
p1215
aS'Westbrook 4th Anniversary Chocolate Coconut Almond Imperial Stout'
p1216
aS'Westbrook 5th Anniversary Chocolate Raspberry Imperial Stout'
p1217
aS'Westbrook Anfernee - Whiskey Barrel Aged'
p1218
aS'Westbrook Comrade Appleseed'
p1219
aS'Westbrook Leopold'
p1220
aS'Westbrook Mexican Cake Imperial Stout'
p1221
aS'Westbrook Mexican Cake Imperial Stout - Bourbon Barrel (2014)'
p1222
aS'Westbrook Mexican Cake Imperial Stout - Bourbon Barrel (2015)'
p1223
aS'Westbrook Mexican Cake Imperial Stout - Bourbon Coconut'
p1224
aS'Westbrook Mexican Cake Imperial Stout - Coffee'
p1225
aS'Westbrook Mexican Cake Imperial Stout - Double Chocolate Bourbon Barrel'
p1226
aS'Westbrook Mexican Cake Imperial Stout - Pappy Barrel'
p1227
aS'Westbrook Mexican Cake Imperial Stout - Red Wine Barrel'
p1228
aS'Westbrook Mexican Cake Imperial Stout - Tequila Barrel'
p1229
aS'Westbrook Shanes Big DIPA'
p1230
aS'Westbrook Siberian Black Magic Panther - Apple Brandy Barrel'
p1231
aS'Westbrook Siberian Black Magic Panther - Bourbon Barrel'
p1232
aS'White Birch Nyx'
p1233
aS'Wicked Weed Angel of Darkness'
p1234
aS'Wicked Weed Bramble Barrel'
p1235
aS'Wicked Weed Cherry Go Lightly'
p1236
aS'Wicked Weed Dark Age Bourbon Stout'
p1237
aS'Wicked Weed Framboos Morte'
p1238
aS'Wicked Weed Freak Of Nature Double IPA'
p1239
aS'Wicked Weed Garon de Ferme'
p1240
aS'Wicked Weed Golden Angel'
p1241
aS'Wicked Weed Medora Blackberry Raspberry Sour'
p1242
aS'Wicked Weed Montmaretto (Canvas Series)'
p1243
aS'Wicked Weed Mnage-a-Freak'
p1244
aS'Wicked Weed Pernicious IPA'
p1245
aS'Wicked Weed Red Angel'
p1246
aS'Wicked Weed Ruffian Imperial Black IPA'
p1247
aS'Wicked Weed White Angel'
p1248
aS'Willimantic Address Unknown IPA'
p1249
aS'Willimantic Willi Whammer'
p1250
aS'Wind River Strom Bomb Oatmeal Stout'
p1251
aS'Wind River Wyoming Pale Ale (WPA)'
p1252
aS'Wiseacre Adjective Animal'
p1253
aS'Wiseacre Astronaut Status'
p1254
aS'Wiseacre Gotta Get Up to Get Down Coffee Milk Stout'
p1255
aS'Woodland Empire Beast Moans'
p1256
aS'Woodland Empire Cozy Up Big Ol Milk Stout'
p1257
aS'Wrecking Bar Choco Mountain Imperial Breakfast Stout'
p1258
aS'Wrecking Bar Jemmy American Stout'
p1259
aS'Wrecking Bar Jemmy Dean Breakfast Stout'
p1260
aS'Wrecking Bar Mexican Siberius Maximus Russian Imperial Stout'
p1261
aS'Wrecking Bar Siberius Maximus Russian Imperial Stout'
p1262
aS'Yazoo / New Belgium Embrace The Funk Series: Rufus'
p1263
aS'Yazoo Embrace The Funk Series: Citra Luxe'
p1264
aS'Yazoo Embrace the Funk Series: Deux Rouges'
p1265
aS'Yazoo Fortuitous'
p1266
aS'Yazoo SUE'
p1267
aS'Yazoo Sly Rye Porter'
p1268
aS'Yellowstone Valley Numbskull IPA'
p1269
a.