(dp0
S'Selins Grove Pumpkin Ale'
p1
(lp2
F16.4
aF16.7
asS'Side Project Unblended (Barrel #40)'
p3
(lp4
F16.4
aF16.6
asS'Three Floyds Baller Stout'
p5
(lp6
F16.0
aF16.3
asS'Russian River Pliny the Younger'
p7
(lp8
F17.6
aF17.8
asS'Schramms The Statement - Reserve'
p9
(lp10
F17.6
aF17.6
asS'Bluegrass Bourbon Barrel Russian Imperial Porter'
p11
(lp12
F15.6
aF16.0
asS'Joseph James Bourbon Barrel-Aged Russian Imperial Stout'
p13
(lp14
F15.2
aF15.6
asS'Schramms Black Agnes'
p15
(lp16
F17.2
aF17.2
asS'Tired Hands We Are All Infinite Energy Vibrating at the Same Frequency'
p17
(lp18
F16.0
aF16.5
asS'Core Toasted Coconut Ale'
p19
(lp20
F13.2
aF12.7
asS'Morgantown First Shift Coffee Porter'
p21
(lp22
F14.0
aF14.0
asS'OEC Artista Zynergia: Gosatequin (Blend #1)'
p23
(lp24
F15.6
aF15.9
asS'Crooked Stave Petite Sour Hibiscus & Cinnamon (Apple/Peach Whiskey)'
p25
(lp26
F16.4
aF16.5
asS'Free State Black Jack Porter'
p27
(lp28
F14.8
aF15.0
asS'Central Waters Brewers Reserve Bourbon Barrel Barleywine'
p29
(lp30
F15.6
aF15.9
asS'Ozark Onyx Coffee Stout'
p31
(lp32
F14.8
aF15.3
asS'Bluegrass Cherry Inyouendo'
p33
(lp34
F15.6
aF15.8
asS'Snake River Zonker Stout'
p35
(lp36
F14.8
aF14.9
asS'Wrecking Bar Jemmy American Stout'
p37
(lp38
F15.6
aF15.7
asS'Humboldt Black Xantus'
p39
(lp40
F15.6
aF15.9
asS'Tree House Good Morning'
p41
(lp42
F16.8
aF17.0
asS'Snake River Le Serpent Framboise'
p43
(lp44
F16.4
aF16.9
asS'Southern Tier Blackwater Series: Choklat'
p45
(lp46
F16.4
aF16.3
asS'Surly Darkness'
p47
(lp48
F16.8
aF17.0
asS'Parish Farmhouse IPA'
p49
(lp50
F15.2
aF15.5
asS'Highland Black Watch Double Chocolate Milk Stout'
p51
(lp52
F16.0
aF16.4
asS'18th Street Barrel Aged Hunter - Wheat Whiskey'
p53
(lp54
F16.0
aF16.1
asS'Foolproof Shuckolate'
p55
(lp56
F14.4
aF14.5
asS'Crow Peak Canyon Cream Ale'
p57
(lp58
F10.0
aF9.5
asS'Fargo Iron Horse Pale Ale'
p59
(lp60
F14.0
aF14.3
asS'Pointe of View Winery Semi-Dry Honey Wine'
p61
(lp62
F10.4
aF10.4
asS'Side Project Derivation Blend #3'
p63
(lp64
F16.8
aF17.1
asS'Bridge Brew Works India Pale Ale'
p65
(lp66
F13.2
aF13.2
asS'Perennial Barrel Aged Sump'
p67
(lp68
F16.0
aF16.3
asS'Great Basin Scytale 385'
p69
(lp70
F16.0
aF16.0
asS'Smuttynose Julio??s Fashionably Old Ale'
p71
(lp72
F15.2
aF15.8
asS'Dempseys Longship Lager'
p73
(lp74
F11.2
aF10.5
asS'Prairie Americana'
p75
(lp76
F15.2
aF15.7
asS'Crow Peak Mjollnir'
p77
(lp78
F13.2
aF13.4
asS'Fish Tale 10_ Anniversary Ale'
p79
(lp80
F15.2
aF15.7
asS'Santa Fe Los Innovadores Kriek'
p81
(lp82
F15.2
aF15.4
asS'De Garde Nectarine Premiere'
p83
(lp84
F16.8
aF17.1
asS'Trillium Congress Street IPA'
p85
(lp86
F16.0
aF16.4
asS'Funky Buddha Snowed In - Bourbon Barrel'
p87
(lp88
F17.2
aF17.5
asS'Toppling Goliath Golden Nugget IPA'
p89
(lp90
F15.2
aF15.5
asS'Big Sky Biere de Noel'
p91
(lp92
F14.0
aF14.4
asS'Deschutes The Abyss - Rye Whiskey'
p93
(lp94
F16.4
aF16.7
asS'Grand Teton Double Vision Doppelbock'
p95
(lp96
F15.2
aF15.5
asS'3 Stars Starsky and Dutch'
p97
(lp98
F15.6
aF15.2
asS'Tenaya Creek Monsoon Double IPA'
p99
(lp100
F14.0
aF14.3
asS'Big Island Red Giant Ale'
p101
(lp102
F14.4
aF14.4
asS'Two Roads Unorthodox'
p103
(lp104
F14.8
aF15.1
asS'Jaipur Jalape??o Ale'
p105
(lp106
F15.2
aF15.2
asS'Hill Farmstead What Is Enlightenment?'
p107
(lp108
F16.4
aF16.7
asS'Prairie Coffee Okie'
p109
(lp110
F15.6
aF16.0
asS'Newport Storm Cyclone Series Vlad'
p111
(lp112
F14.8
aF15.4
asS'Maui Brewing Shipwreck Stout'
p113
(lp114
F14.4
aF14.7
asS'Westbrook / Evil Twin Mini Growler'
p115
(lp116
F15.6
aF15.8
asS'Cigar City Caff Americano Double Stout'
p117
(lp118
F16.8
aF16.8
asS'Big Sky Ivan The Terrible Imperial Stout'
p119
(lp120
F15.2
aF15.2
asS'Toppling Goliath Pompeii IPA'
p121
(lp122
F16.0
aF16.2
asS'Prairie Bomb! - Barrel Aged'
p123
(lp124
F16.4
aF16.8
asS'De Garde The Broken Truck'
p125
(lp126
F17.2
aF17.4
asS'Crow Peak Pile-O-Dirt Porter'
p127
(lp128
F13.2
aF13.5
asS'Firehouse Strong Arm Porter'
p129
(lp130
F12.4
aF13.5
asS'Tree House Very Hazy'
p131
(lp132
F17.2
aF17.4
asS'Funky Buddha Last Buffalo in the Park'
p133
(lp134
F18.0
aF17.9
asS'Pike XXXXX Stout'
p135
(lp136
F15.2
aF15.4
asS'New Belgium La Folie'
p137
(lp138
F16.0
aF16.2
asS'Hangar 24 Barrel Roll: Pugachev Royale'
p139
(lp140
F16.8
aF17.4
asS'Ramstein Winter Wheat'
p141
(lp142
F14.8
aF15.3
asS'Evil Twin A??n M??s a Jes??s'
p143
(lp144
F16.4
aF16.4
asS'Schramms The Statement'
p145
(lp146
F16.8
aF16.9
asS'Maui Brewing Big Swell IPA'
p147
(lp148
F14.4
aF14.8
asS'Voodoo ManBearPig'
p149
(lp150
F17.2
aF17.5
asS'Revival Burnsider Pale Ale'
p151
(lp152
F14.4
aF14.5
asS'Pointe of View Winery Honey Wine with Elderflowers'
p153
(lp154
F11.6
aF11.6
asS'Against the Grain Brett The Hipman Hop'
p155
(lp156
F15.2
aF15.6
asS'Toppling Goliath Sosus'
p157
(lp158
F16.4
aF16.6
asS'Superstition Blue Berry White'
p159
(lp160
F18.0
aF18.1
asS'Big Dog??s Dirty Dog IPA'
p161
(lp162
F14.0
aF14.3
asS'Hoppin?? Frog Barrel Aged BORIS Royale'
p163
(lp164
F16.4
aF16.4
asS'Goose Island Night Stalker'
p165
(lp166
F16.0
aF16.3
asS'Yazoo Sly Rye Porter'
p167
(lp168
F14.4
aF14.4
asS'Destihl Dosvidanya Russian Imperial Stout'
p169
(lp170
F16.0
aF16.2
asS'Surly Abrasive Ale'
p171
(lp172
F16.4
aF16.6
asS'SPB Cicada Series Rgana Baltic Porter'
p173
(lp174
F15.2
aF15.2
asS'Evil Twin Imperial Biscotti Break - Bourbon Barrel'
p175
(lp176
F16.4
aF16.8
asS'Hill Farmstead Society & Solitude #6'
p177
(lp178
F16.8
aF16.8
asS'Toppling Goliath Twisted Galaxy'
p179
(lp180
F16.4
aF16.8
asS'Proclamation Keraterra (Citra/Amarillo)'
p181
(lp182
F15.2
aF14.9
asS'Back Forty Trade Day Cuban Coffee Stout'
p183
(lp184
F14.0
aF14.0
asS'Lost Forty Pale Ale'
p185
(lp186
F15.2
aF15.3
asS'Anchorage The Experiment'
p187
(lp188
F15.6
aF15.9
asS'Side Project Thicket'
p189
(lp190
F16.4
aF16.6
asS'AleSmith Speedway Stout - Hawaiian'
p191
(lp192
F16.8
aF16.9
asS'Cycle Four Roses BA Rye Stout'
p193
(lp194
F17.6
aF18.0
asS'Yazoo SUE'
p195
(lp196
F15.2
aF15.4
asS'Bitter Root Last Cast Black IPA'
p197
(lp198
F14.8
aF15.0
asS'Fremont Cowiche Canyon - Citra & Simcoe (Fresh Hop)'
p199
(lp200
F15.6
aF15.8
asS'Triumph Coffee & Cream Stout'
p201
(lp202
F15.2
aF15.2
asS'Lawsons Finest Double Sunshine IPA'
p203
(lp204
F16.4
aF16.7
asS'Firehouse Brown Cow Ale'
p205
(lp206
F14.0
aF14.4
asS'Joseph James Citra Rye Pale Ale'
p207
(lp208
F14.4
aF14.6
asS'Wrecking Bar Siberius Maximus Russian Imperial Stout'
p209
(lp210
F16.4
aF16.5
asS'La Cumbre Red Ryeot'
p211
(lp212
F15.2
aF15.4
asS'Westbrook Mexican Cake Imperial Stout - Double Chocolate Bourbon Barrel'
p213
(lp214
F16.8
aF17.2
asS'Jester King Aurelian Lure'
p215
(lp216
F15.6
aF15.9
asS'Prairie Apple Brandy Barrel Noir'
p217
(lp218
F16.4
aF16.8
asS'Altitude High Plains Pale Ale'
p219
(lp220
F14.0
aF14.1
asS'Dogfish Head Burton Baton'
p221
(lp222
F15.2
aF15.6
asS'Santa Fe Barrel Aged Sour State Pen Porter'
p223
(lp224
F14.8
aF15.0
asS'Bullfrog Et Tu Brut'
p225
(lp226
F16.4
aF16.8
asS'De Garde Imperial Black Raz Bu'
p227
(lp228
F16.4
aF16.6
asS'Lickinghole Creek Supreme Leader'
p229
(lp230
F16.0
aF15.9
asS'Toppling Goliath ZeeLander'
p231
(lp232
F15.6
aF15.7
asS'Fargo Mighty Red'
p233
(lp234
F12.4
aF11.8
asS'Maui Brewing KGB Woody'
p235
(lp236
F15.2
aF15.7
asS'Trillium Fort Point Pale Ale - Mosaic Dry Hopped'
p237
(lp238
F16.4
aF16.7
asS'Snake River Pakos IPA'
p239
(lp240
F14.4
aF14.7
asS'Kane A Night to End All Dawns - Vanilla Bean'
p241
(lp242
F16.4
aF16.6
asS'Fargo Super Green'
p243
(lp244
F14.8
aF15.0
asS'Wiseacre Astronaut Status'
p245
(lp246
F16.0
aF16.2
asS'5 Seasons North Quinte55ence'
p247
(lp248
F16.0
aF16.5
asS'Black Tooth Saddle Bronc Brown'
p249
(lp250
F14.0
aF14.0
asS'Side Project Saison du Bl'
p251
(lp252
F16.0
aF16.3
asS'Stillwater Contemporary Works - Surround'
p253
(lp254
F15.2
aF15.2
asS'New England 668 Chardonneighbor Of The Beast'
p255
(lp256
F15.6
aF16.1
asS'Upstream Grand Cru'
p257
(lp258
F15.2
aF15.5
asS'Grand Teton Pursuit of Hoppiness'
p259
(lp260
F14.4
aF14.8
asS'Surly Darkness 2014 - Bottled'
p261
(lp262
F16.4
aF16.6
asS'Cycle Nooner #9'
p263
(lp264
F17.2
aF17.3
asS'Cycle Nooner #8'
p265
(lp266
F17.2
aF17.2
asS'Flossmoor Station Pretty Big IPA'
p267
(lp268
F15.6
aF15.9
asS'Bayou Teche Loup Garou'
p269
(lp270
F14.8
aF15.1
asS'OEC Aeris Singularis (Pinot Noir/Gin Barrel)'
p271
(lp272
F15.6
aF15.9
asS'Hardywood Bourbon Barrel Raspberry Stout With Vanilla Beans'
p273
(lp274
F15.6
aF15.9
asS'Bissell Brothers Swish'
p275
(lp276
F16.4
aF16.5
asS'Central Waters 17 Anniversary Edition'
p277
(lp278
F16.4
aF16.6
asS'Portsmouth Royal Impy Stout'
p279
(lp280
F15.6
aF15.6
asS'Lost Abbey Box Set: Track #10 (Bat out of Hell)'
p281
(lp282
F16.4
aF16.7
asS'Epic Old Sage Brett'
p283
(lp284
F15.2
aF15.4
asS'Trillium Upper Case'
p285
(lp286
F16.4
aF16.7
asS'Free State Hop Picker Pale Ale'
p287
(lp288
F14.8
aF15.1
asS'Greenbrier Valley Mothman Black IPA'
p289
(lp290
F14.0
aF14.1
asS'Flying Dog Wild Dog Barrel-Aged Gonzo'
p291
(lp292
F15.6
aF15.8
asS'Haymarket Clares Thirsty Ale'
p293
(lp294
F16.0
aF16.4
asS'Blackberry Farm / Evil Twin From Tennessee With Smoke'
p295
(lp296
F15.2
aF15.6
asS'Against the Grain / Dry & Bitter Your Lytest One'
p297
(lp298
F15.6
aF15.8
asS'Logsdon Peche ??n Brett'
p299
(lp300
F16.4
aF16.5
asS'Narragansett Autocrat Coffee Milk Stout'
p301
(lp302
F14.0
aF13.9
asS'Tenaya Creek Red Ryder'
p303
(lp304
F14.4
aF14.7
asS'Fat Head??s Head Hunter IPA'
p305
(lp306
F16.0
aF16.2
asS'Central Waters Brewers Reserve Bourbon Barrel Stout'
p307
(lp308
F15.6
aF16.0
asS'Brooklyn Black Ops'
p309
(lp310
F16.0
aF16.0
asS'Hill Farmstead Society & Solitude #5'
p311
(lp312
F16.8
aF17.0
asS'Firehouse Chukkar Ale'
p313
(lp314
F12.4
aF12.6
asS'Hair of the Dog Fred from the Wood'
p315
(lp316
F16.4
aF16.7
asS'Santa Fe State Pen Imperial Porter'
p317
(lp318
F15.2
aF15.3
asS'Revolution Gravedigger Billy'
p319
(lp320
F15.6
aF15.8
asS'Free State Octoberfest'
p321
(lp322
F14.4
aF14.7
asS'Dogfish Head Raison D Extra'
p323
(lp324
F15.2
aF15.4
asS'New England Fuzzy Baby Ducks IPA'
p325
(lp326
F16.8
aF17.1
asS'Founders KBS (Kentucky Breakfast Stout)'
p327
(lp328
F17.2
aF17.4
asS'Tallgrass Vanilla Bean Buffalo Sweat'
p329
(lp330
F14.4
aF14.6
asS'Town Hall Masala Mama IPA'
p331
(lp332
F16.0
aF16.1
asS'Flying Dog Imperial IPA - Citra Single Hop'
p333
(lp334
F15.2
aF15.3
asS'Three Floyds Dark Lord Russian Imperial Stout (Bourbon Vanilla Bean)'
p335
(lp336
F17.6
aF17.5
asS'Upright Fantasia'
p337
(lp338
F16.0
aF16.3
asS'Trillium Scaled - Double Dry Hopped'
p339
(lp340
F16.4
aF16.5
asS'Half Acre Double Daisy Cutter'
p341
(lp342
F15.6
aF15.8
asS'Kona Old Blowhole Barley Wine'
p343
(lp344
F15.2
aF15.3
asS'Jackie O??s Iced Coffee Apparition'
p345
(lp346
F17.2
aF17.5
asS'Hill Farmstead Genealogy of Morals - Bourbon'
p347
(lp348
F16.4
aF16.8
asS'Great Divide Yeti Imperial Stout - Espresso Oak Aged'
p349
(lp350
F16.4
aF16.6
asS'De Garde / Side Project Saison Desay - Chardonnay Barrel'
p351
(lp352
F16.4
aF16.9
asS'Alaskan Smoked Porter'
p353
(lp354
F15.6
aF15.8
asS'Smuttynose Robust Porter'
p355
(lp356
F15.2
aF15.5
asS'Evil Twin Imperial Doughnut Break'
p357
(lp358
F16.0
aF16.0
asS'Triumph Jewish Rye Beer'
p359
(lp360
F14.8
aF15.3
asS'Terminal BrewHouse The White Shadow'
p361
(lp362
F14.4
aF14.5
asS'DuClaw Retribution'
p363
(lp364
F15.2
aF15.3
asS'Hill Farmstead Ephraim'
p365
(lp366
F16.8
aF17.1
asS'Haymarket Indignant Imperial Stout - Bourbon Barrel'
p367
(lp368
F16.0
aF15.9
asS'Tree House Green'
p369
(lp370
F16.4
aF16.5
asS'Westbrook Leopold'
p371
(lp372
F15.2
aF15.6
asS'New Glarus R & D Vintage 2014'
p373
(lp374
F15.6
aF16.2
asS'Flying Dog Barrel-Aged Horn Dog'
p375
(lp376
F15.2
aF15.6
asS'Westbrook 5th Anniversary Chocolate Raspberry Imperial Stout'
p377
(lp378
F15.6
aF15.6
asS'Freetail Raspberry Ananke'
p379
(lp380
F15.6
aF16.0
asS'Karbach 003 Bourbon Barrel Hellfighter'
p381
(lp382
F15.6
aF15.8
asS'Stoneface Porter'
p383
(lp384
F15.6
aF15.6
asS'Brau Brothers Rye Wyne Ale 2011'
p385
(lp386
F15.6
aF15.8
asS'Three Floyds Permanent Funeral'
p387
(lp388
F16.0
aF16.3
asS'Goose Island Cthulhu'
p389
(lp390
F16.8
aF16.9
asS'Jackie O??s Bourbon Barrel Dark Apparition'
p391
(lp392
F16.0
aF16.2
asS'Midnight Sun Monks Mistress'
p393
(lp394
F15.6
aF16.0
asS'Elysian The Fix'
p395
(lp396
F15.6
aF15.8
asS'Morgantown Andersons Kettle Bottom Brown Ale'
p397
(lp398
F12.8
aF12.9
asS'Hoppin?? Frog Barrel Aged BORIS Van Wink'
p399
(lp400
F16.4
aF16.5
asS'Pisgah Valdez'
p401
(lp402
F15.6
aF15.5
asS'Bells Expedition Stout'
p403
(lp404
F17.2
aF17.3
asS'Wicked Weed Gar??on de Ferme'
p405
(lp406
F16.0
aF16.6
asS'Rogue Double Chocolate Stout'
p407
(lp408
F16.0
aF16.1
asS'Yazoo Fortuitous'
p409
(lp410
F14.4
aF14.7
asS'Town Hall Twisted Trace'
p411
(lp412
F16.0
aF16.2
asS'Perennial Maman'
p413
(lp414
F16.8
aF17.2
asS'Flying Dog Double Dog Double Pale Ale'
p415
(lp416
F15.2
aF15.3
asS'Big Horn Tres Amigos Tequila Aged Imperial IPA'
p417
(lp418
F15.6
aF15.7
asS'Captain Lawrence Cuvee de Castleton'
p419
(lp420
F16.4
aF16.7
asS'Town Hall Coconut Milk Stout'
p421
(lp422
F15.6
aF15.8
asS'Bitter Creek A Beer Named Bob'
p423
(lp424
F14.0
aF13.7
asS'White Birch Nyx'
p425
(lp426
F15.2
aF15.4
asS'Side Project Framboise du Fermier'
p427
(lp428
F17.2
aF17.7
asS'Prairie Prairie Hop'
p429
(lp430
F15.6
aF15.7
asS'Proclamation Postcursor'
p431
(lp432
F15.6
aF15.8
asS'Lazy Magnolia Southern Hopspitality'
p433
(lp434
F13.6
aF14.0
asS'Side Project Derivation Blend #1'
p435
(lp436
F17.6
aF17.8
asS'Prairie / Evil Twin Bible Belt'
p437
(lp438
F16.4
aF16.5
asS'Side Project Derivation Blend #2'
p439
(lp440
F18.0
aF18.4
asS'Pipeworks Unicorn Galaxy Imperial IPA'
p441
(lp442
F16.0
aF16.1
asS'Great Divide Yeti Imperial Stout - Chocolate Oak Aged'
p443
(lp444
F16.0
aF16.1
asS'Hardywood Trickery'
p445
(lp446
F16.0
aF16.1
asS'Fargo Sodbuster Porter'
p447
(lp448
F13.6
aF13.5
asS'Jester King Montmorency vs. Balaton'
p449
(lp450
F16.0
aF16.4
asS'Pelican Mother of all Storms'
p451
(lp452
F16.0
aF16.4
asS'AleSmith Speedway Stout - Velvet'
p453
(lp454
F17.6
aF17.4
asS'Wind River Strom Bomb Oatmeal Stout'
p455
(lp456
F14.0
aF13.9
asS'Tallgrass Zombie Monkie'
p457
(lp458
F14.8
aF15.1
asS'Epic Big Bad Baptist'
p459
(lp460
F16.0
aF16.3
asS'Maine Beer Zoe'
p461
(lp462
F15.6
aF15.6
asS'Big Sky Olde Bluehair Barleywine'
p463
(lp464
F14.8
aF15.3
asS'Toppling Goliath King Sue'
p465
(lp466
F16.8
aF17.2
asS'Core Hilltop IPA'
p467
(lp468
F13.6
aF13.9
asS'Terrapin Side Project Hopzilla Double IPA'
p469
(lp470
F15.2
aF15.3
asS'Funky Buddha Last Snow Porter'
p471
(lp472
F16.4
aF16.5
asS'Anchorage Mosaic Saison'
p473
(lp474
F15.6
aF15.8
asS'Bullfrog Le Roar Grrrz Apricot'
p475
(lp476
F16.4
aF16.6
asS'J. Wakefield Miami Madness'
p477
(lp478
F16.8
aF17.1
asS'Hill Farmstead Double Citra'
p479
(lp480
F16.4
aF16.8
asS'Foolproof Revery Russian Imperial Stout'
p481
(lp482
F14.8
aF14.9
asS'Port Brewing Older Viscosity'
p483
(lp484
F16.4
aF16.7
asS'Fernson Farmhouse Ale'
p485
(lp486
F12.8
aF12.8
asS'Terrapin Big Hoppy Monster'
p487
(lp488
F15.2
aF15.5
asS'Mad Fox Batch 100 Strong Black Ale'
p489
(lp490
F16.0
aF16.1
asS'Allagash Interlude'
p491
(lp492
F15.6
aF15.8
asS'Hill Farmstead Abner'
p493
(lp494
F16.8
aF17.2
asS'Dogfish Head Beer for Breakfast'
p495
(lp496
F15.2
aF15.1
asS'Grand Teton Sheep Eater Scotch Ale'
p497
(lp498
F14.8
aF14.8
asS'Nebraska Reserve Series Barrel Aged HopAnomaly'
p499
(lp500
F15.2
aF15.5
asS'Funk Factory Geuzeria / Oso Framrood'
p501
(lp502
F16.4
aF16.5
asS'Midnight Sun Berserker'
p503
(lp504
F16.4
aF16.6
asS'Superstition Endovelicus'
p505
(lp506
F18.0
aF17.9
asS'Uinta Dubhe Imperial Black IPA'
p507
(lp508
F15.2
aF15.3
asS'Jackie O??s Bourbon Barrel Champion Ground'
p509
(lp510
F16.4
aF16.7
asS'Tyranena BGW Devil Over A Barrel'
p511
(lp512
F16.0
aF16.4
asS'Fernson IPA'
p513
(lp514
F12.8
aF13.0
asS'Casey The Cut: Balaton Cherry'
p515
(lp516
F16.8
aF17.1
asS'New England Supernaut IPA'
p517
(lp518
F16.0
aF16.5
asS'AleSmith Speedway Stout - Bourbon Barrel Aged: Vietnamese Coffee'
p519
(lp520
F17.2
aF17.5
asS'Surly Wet 2012 & 2015'
p521
(lp522
F15.6
aF15.8
asS'Laughing Dog Devil Dog Imperial IPA'
p523
(lp524
F14.8
aF15.0
asS'LaConner Olde Curmudgeon'
p525
(lp526
F16.0
aF16.3
asS'Joseph James 6th Anniversary Barrel-aged Rye Wine'
p527
(lp528
F14.0
aF14.4
asS'Roughtail Hoptometrist Double India Pale Ale'
p529
(lp530
F15.6
aF16.1
asS'Peace Tree Hop Sutra'
p531
(lp532
F14.8
aF14.9
asS'Jester King Atrial Rubicite'
p533
(lp534
F16.4
aF16.7
asS'Three Floyds Dark Lord Russian Imperial Stout (Aquavit Barrel Aged)'
p535
(lp536
F16.4
aF16.6
asS'Thomas Hooker Imperial Porter'
p537
(lp538
F14.8
aF15.0
asS'Cigar City Marshal Zhukovs Imperial Stout - Bourbon Barrel'
p539
(lp540
F16.8
aF16.8
asS'Sweetwater Tavern High Desert Imperial Stout'
p541
(lp542
F16.0
aF16.1
asS'Blackberry Farm Spring Saison'
p543
(lp544
F14.4
aF14.8
asS'SPB Devils Harvest Extra Pale Ale (-2016)'
p545
(lp546
F13.6
aF13.5
asS'New England Imperial Stout Trooper (Bourbon)'
p547
(lp548
F15.2
aF15.1
asS'The Duck-Rabbit Baltic Porter'
p549
(lp550
F16.0
aF16.3
asS'Big Sky Cowboy Coffee Porter'
p551
(lp552
F14.4
aF14.6
asS'Goose Island Bourbon County Stout - Templeton Rye Barrel'
p553
(lp554
F16.4
aF16.4
asS'Prairie Okie'
p555
(lp556
F15.2
aF15.7
asS'Wrecking Bar Jemmy Dean Breakfast Stout'
p557
(lp558
F15.6
aF15.7
asS'Anchorage Anadromous Belgian Black Bier'
p559
(lp560
F14.8
aF15.2
asS'Wicked Weed Medora Blackberry Raspberry Sour'
p561
(lp562
F16.0
aF16.2
asS'Hoppin?? Frog TORIS The Tyrant: Triple Oatmeal Stout'
p563
(lp564
F16.4
aF16.6
asS'Hoppin?? Frog Barrel Aged BORIS Bairille Aois'
p565
(lp566
F16.0
aF15.9
asS'Allagash Merveilleux'
p567
(lp568
F15.6
aF16.1
asS'Casey Brett Loves Citra'
p569
(lp570
F16.4
aF16.6
asS'Three Floyds Dreadnaught Imperial IPA'
p571
(lp572
F16.8
aF17.2
asS'Parish Opus Vert'
p573
(lp574
F15.6
aF15.4
asS'Foothills Barrel Aged Sexual Chocolate Imperial Stout'
p575
(lp576
F16.0
aF16.3
asS'Stillwater Barrel Aged Series - Folklore, the tale of Van Winkle'
p577
(lp578
F15.6
aF15.9
asS'Straight To Ale Velvet Evil'
p579
(lp580
F15.2
aF15.7
asS'Schramms Madeline'
p581
(lp582
F17.6
aF17.7
asS'Tree House Doppelganger'
p583
(lp584
F16.4
aF16.7
asS'Uinta Crooked Line Sea Legs Baltic Porter'
p585
(lp586
F15.2
aF15.5
asS'Three Floyds French Vanilla Militia'
p587
(lp588
F16.8
aF16.8
asS'OEC Nepenthes'
p589
(lp590
F15.6
aF16.0
asS'Upright Flora Rustica (Barrel Aged)'
p591
(lp592
F16.0
aF16.3
asS'Epic Imperial Stout'
p593
(lp594
F15.2
aF15.2
asS'COAST Blackbeerd Imperial Stout - Bourbon Barrel'
p595
(lp596
F16.0
aF16.0
asS'Chandeleur Curlews Toasted Coconut Porter'
p597
(lp598
F13.6
aF13.8
asS'Laughing Dog Anubis Imperial Coffee Porter'
p599
(lp600
F14.8
aF14.7
asS'DC Brau Solar Abyss'
p601
(lp602
F15.6
aF15.5
asS'OEC Artista Zynergia: Oudilis'
p603
(lp604
F16.0
aF16.2
asS'The Veil Master Master Shredder Shredder'
p605
(lp606
F16.0
aF15.9
asS'Right Proper The Lubitsch Touch'
p607
(lp608
F15.2
aF15.2
asS'Oxbow / Stillwater Stillbow Oxtisanal'
p609
(lp610
F16.0
aF16.1
asS'La Cumbre Full Nelson'
p611
(lp612
F16.8
aF16.7
asS'Hoppin?? Frog Cafe BORIS'
p613
(lp614
F16.0
aF16.1
asS'Maine Beer II'
p615
(lp616
F15.6
aF15.9
asS'La Cumbre La Roja Grande'
p617
(lp618
F15.6
aF15.8
asS'Toppling Goliath Intergalactic Warrior IPA'
p619
(lp620
F15.2
aF15.6
asS'Bluegrass Bearded Pats Barleywine Style Ale'
p621
(lp622
F14.4
aF14.6
asS'Columbus Bodhi'
p623
(lp624
F16.0
aF16.2
asS'Narragansett Private Stock Imperial Russian Stout'
p625
(lp626
F14.8
aF14.7
asS'Jester King Sherry Barrel Atrial Rubicite'
p627
(lp628
F17.2
aF17.6
asS'Fremont Rusty Nail'
p629
(lp630
F16.8
aF17.1
asS'Toppling Goliath XHops Series - Gold'
p631
(lp632
F15.6
aF15.7
asS'Perennial Barrel Aged Sump (Rwandan Kyoto)'
p633
(lp634
F16.4
aF16.6
asS'Elysian Punkuccino Coffee Pumpkin Ale'
p635
(lp636
F15.2
aF15.4
asS'Central Waters 18 Anniversary Edition'
p637
(lp638
F16.4
aF16.7
asS'Maui Brewing Double Overhead IPA'
p639
(lp640
F14.8
aF15.3
asS'Lazy Magnolia Gulf Porter'
p641
(lp642
F13.2
aF13.5
asS'Hoppin?? Frog Rocky Mountain BORIS'
p643
(lp644
F16.4
aF16.6
asS'Diamond Bear Strawberry Blonde'
p645
(lp646
F13.2
aF12.8
asS'Fargo Original Pale Lager'
p647
(lp648
F12.8
aF12.8
asS'Against the Grain / To l An Ale Pleasure'
p649
(lp650
F15.6
aF15.6
asS'Toppling Goliath Galaxy Dry Hopped pseudoSue'
p651
(lp652
F15.6
aF16.1
asS'Goose Island Bourbon County Stout - Rare 2015'
p653
(lp654
F16.8
aF16.9
asS'Devils Backbone / Wicked Weed Seven Summits'
p655
(lp656
F15.6
aF15.9
asS'Against the Grain The Green Dragon'
p657
(lp658
F14.8
aF15.0
asS'Fargo Wood Chipper IPA'
p659
(lp660
F13.2
aF13.0
asS'Brash Biggie Smalls Imperial Brown Ale'
p661
(lp662
F15.6
aF16.0
asS'Smuttynose Smuttlabs Imperial Stout'
p663
(lp664
F16.0
aF16.2
asS'Pointe of View Winery Sweet Honey Wine'
p665
(lp666
F11.2
aF11.2
asS'Superstition Peanut Butter Jelly Crime'
p667
(lp668
F18.0
aF18.0
asS'Tree House Julius'
p669
(lp670
F16.8
aF16.9
asS'West Sixth Snake Eyes Imperial Stout'
p671
(lp672
F15.2
aF15.0
asS'Jester King Bire de Blanc du Bois'
p673
(lp674
F16.0
aF16.4
asS'Foothills / Duck-Rabbit / Olde Hickory Olde Rabbit??s Foot'
p675
(lp676
F16.0
aF16.3
asS'Triple 7 Marker Pale Ale'
p677
(lp678
F14.0
aF13.9
asS'Fargo O??Fest Oktoberfest Lager'
p679
(lp680
F12.4
aF12.9
asS'Straight To Ale Gorillanaut Imperial IPA'
p681
(lp682
F15.2
aF15.3
asS'SPB Cicada Series Hipster Breakfast'
p683
(lp684
F14.8
aF15.1
asS'Southern Tier Blackwater Series: Mokah'
p685
(lp686
F16.0
aF15.9
asS'Nebraska New Oak-aged Rye IPA'
p687
(lp688
F15.2
aF15.0
asS'Victory Storm King Imperial Stout'
p689
(lp690
F16.0
aF16.3
asS'Wrecking Bar Choco Mountain Imperial Breakfast Stout'
p691
(lp692
F16.4
aF16.6
asS'AleSmith Speedway Stout - Vietnamese Coffee'
p693
(lp694
F16.8
aF17.1
asS'Three Floyds Dark Lord Russian Imperial Stout (Bourbon Barrel Aged)'
p695
(lp696
F17.6
aF17.6
asS'Wicked Weed Angel of Darkness'
p697
(lp698
F16.0
aF16.3
asS'Terrapin Wake-n-Bake Coffee Oatmeal Imperial Stout'
p699
(lp700
F15.6
aF15.9
asS'Arizona Wilderness American Presidential Stout'
p701
(lp702
F16.4
aF16.3
asS'Carton 077XX'
p703
(lp704
F15.2
aF15.3
asS'Perennial Barrel Aged Abraxas'
p705
(lp706
F17.2
aF17.2
asS'New Glarus R & D Wild Peach'
p707
(lp708
F16.4
aF16.6
asS'Vinos Pinnacle IPA'
p709
(lp710
F13.2
aF13.1
asS'Turtle Anarchy Another Way to Rye'
p711
(lp712
F14.4
aF14.8
asS'Prairie Wine Barrel Noir'
p713
(lp714
F15.6
aF15.6
asS'Trillium Fort Point Pale Ale'
p715
(lp716
F16.4
aF16.5
asS'Great Divide Yeti Imperial Stout - Barrel Aged'
p717
(lp718
F16.0
aF16.4
asS'Joseph James Barrel Smoker'
p719
(lp720
F14.8
aF15.3
asS'Foothills Sexual Chocolate Imperial Stout'
p721
(lp722
F16.0
aF16.2
asS'Lucky Bucket Barrel Aged Kriek'
p723
(lp724
F15.2
aF15.2
asS'Trillium Congress Street IPA - Double Dry Hopped'
p725
(lp726
F16.4
aF16.7
asS'Side Project One Candle'
p727
(lp728
F16.8
aF17.3
asS'Proclamation Derivative Citra Hopped Pale Ale'
p729
(lp730
F15.2
aF15.0
asS'Great Basin Outlaw Milk Stout'
p731
(lp732
F14.0
aF14.3
asS'Terrapin Rye Squared'
p733
(lp734
F15.2
aF15.3
asS'Lost River Black Ale'
p735
(lp736
F13.2
aF13.2
asS'Other Half Double Mosaic Dream'
p737
(lp738
F16.0
aF16.4
asS'Country Boy Papaws Red Ale'
p739
(lp740
F14.8
aF14.9
asS'Smuttynose Smuttlabs Shebang'
p741
(lp742
F15.2
aF15.1
asS'J. Wakefield Dragonfruit Passion Fruit (DFPF) Berliner Weisse'
p743
(lp744
F16.8
aF17.2
asS'Draught Works Scepter Head IPA'
p745
(lp746
F15.6
aF15.5
asS'Midnight Sun XXX Black Double IPA'
p747
(lp748
F15.2
aF15.4
asS'Avery Barrel-Aged Series 36 - Callipygian'
p749
(lp750
F16.8
aF16.9
asS'Fitgers Edmund Imperial Stout (Bourbon Barrel)'
p751
(lp752
F15.6
aF15.9
asS'New England Galaxy Pale Ale'
p753
(lp754
F15.6
aF15.9
asS'Grand Teton 5 OClock Shadow'
p755
(lp756
F14.8
aF14.9
asS'Hardywood Christmas Morning'
p757
(lp758
F16.0
aF16.2
asS'DuClaw Oak Aged Black Jack Stout'
p759
(lp760
F15.6
aF15.7
asS'Blackberry Farm Summer Saison'
p761
(lp762
F15.6
aF15.7
asS'Wicked Weed Golden Angel'
p763
(lp764
F16.0
aF16.3
asS'Maine Beer Dinner'
p765
(lp766
F16.8
aF17.1
asS'Triumph Rauchweizen'
p767
(lp768
F16.4
aF16.4
asS'Superstition Marion Mead - Sparkling'
p769
(lp770
F16.4
aF16.5
asS'Willimantic Address Unknown IPA'
p771
(lp772
F16.0
aF16.4
asS'Lost Abbey Box Set: Track #6 (Highway to Hell)'
p773
(lp774
F16.8
aF17.0
asS'Peace Tree No Coast IPA'
p775
(lp776
F15.2
aF15.7
asS'Grey Sail Pour Judgement IPA'
p777
(lp778
F14.0
aF14.6
asS'Superstition Aphrodisia Pyment - Cabernet/Pinot Noir/Syrah'
p779
(lp780
F16.4
aF16.6
asS'Schramms Raspberry'
p781
(lp782
F16.4
aF16.6
asS'Marble India Pale Ale'
p783
(lp784
F14.8
aF14.9
asS'Hoppin?? Frog BORIS Batch #200'
p785
(lp786
F16.4
aF16.3
asS'Toppling Goliath Thresher IPA'
p787
(lp788
F15.2
aF15.4
asS'Hardywood Kentucky Christmas Morning'
p789
(lp790
F16.0
aF16.4
asS'Walking Man Jaywalker Russian Imperial Stout'
p791
(lp792
F16.4
aF16.5
asS'Good People Coffee Oatmeal Stout'
p793
(lp794
F14.4
aF14.3
asS'Side Project Blanc de Blancs'
p795
(lp796
F16.4
aF16.7
asS'Cigar City Hunahpus Imperial Stout - Double Barrel Aged'
p797
(lp798
F17.6
aF17.8
asS'Stoneface RIS - Bourbon Barrel Aged'
p799
(lp800
F16.4
aF16.5
asS'Wrecking Bar Mexican Siberius Maximus Russian Imperial Stout'
p801
(lp802
F17.2
aF17.4
asS'SPB Cicada Series Suzy Smash'
p803
(lp804
F13.6
aF14.0
asS'Proclamation Derivative Mosaic Hopped Pale Ale'
p805
(lp806
F15.6
aF16.2
asS'Westbrook Mexican Cake Imperial Stout - Bourbon Barrel (2014)'
p807
(lp808
F16.4
aF16.9
asS'Blue Pants Pinstripe Candy Bar Stout'
p809
(lp810
F14.8
aF14.9
asS'Oskar Blues Ten FIDY - Barrel Aged'
p811
(lp812
F16.4
aF16.8
asS'Oskar Blues Ten FIDY - Stranahans Colorado Whiskey Barrel'
p813
(lp814
F16.4
aF16.5
asS'Lift Bridge Silhouette Bourbon Barrel Aged Russian Imperial Stout'
p815
(lp816
F16.0
aF16.2
asS'Midnight Sun 2007 Deadly Sins: Sloth'
p817
(lp818
F16.4
aF16.8
asS'Lazy Magnolia Ginger Jaque'
p819
(lp820
F13.6
aF14.1
asS'Schell Noble Star - Starkeller Peach'
p821
(lp822
F16.0
aF16.3
asS'Union Station Half Day IPA'
p823
(lp824
F14.8
aF14.8
asS'Maine Beer King Titus'
p825
(lp826
F15.6
aF15.6
asS'Evil Twin Pappy??s Imperial Biscotti Break'
p827
(lp828
F16.8
aF17.1
asS'Chestnut Brew Works Halleck Pale Ale'
p829
(lp830
F14.8
aF15.4
asS'Big Dog??s War Dog Imperial IPA'
p831
(lp832
F14.4
aF14.9
asS'New England G-Bot Double IPA'
p833
(lp834
F15.6
aF15.8
asS'Surly / Amager Todd - The Axe Man (Surly Version)'
p835
(lp836
F16.0
aF16.3
asS'Westbrook Comrade Appleseed'
p837
(lp838
F16.0
aF16.0
asS'Avery Mephistopheles Stout'
p839
(lp840
F16.0
aF16.1
asS'Grand Teton Wake Up Call Imperial Coffee Porter'
p841
(lp842
F14.4
aF14.4
asS'Freedoms Edge High Noon Chili Pepper Ale'
p843
(lp844
F13.6
aF14.0
asS'Evil Twin Imperial Biscotti Break'
p845
(lp846
F16.4
aF16.5
asS'Bullfrog Le Roar Grrrz'
p847
(lp848
F16.0
aF16.4
asS'Bridge Brew Works The Dun Glen Dubbel'
p849
(lp850
F14.0
aF14.0
asS'SPB Lazarus'
p851
(lp852
F13.2
aF12.9
asS'La Cumbre Father Nelson'
p853
(lp854
F16.0
aF16.3
asS'New England Locust Reign'
p855
(lp856
F16.0
aF15.9
asS'Greenbrier Valley Wild Trail Pale Ale'
p857
(lp858
F13.2
aF13.3
asS'Quaff Bros Full Allotment'
p859
(lp860
F16.0
aF16.4
asS'Midnight Sun T.R.E.A.T. Imperial Chocolate Pumpkin Porter'
p861
(lp862
F15.6
aF15.6
asS'Dogfish Head 90 Minute Imperial IPA'
p863
(lp864
F16.4
aF16.6
asS'Casey Dry Hopped Oak Theory - Galaxy & Simcoe'
p865
(lp866
F16.4
aF16.7
asS'Greenbrier Valley Devil Anse IPA'
p867
(lp868
F14.0
aF14.2
asS'Laughing Sun Black Shox Porter'
p869
(lp870
F13.6
aF13.7
asS'Bluejacket / Brooklyn / New Belgium Rheinard de Vos'
p871
(lp872
F15.2
aF15.5
asS'Founders Bourbon Barrel Imperial Stout'
p873
(lp874
F16.8
aF17.1
asS'Wicked Weed Montmaretto (Canvas Series)'
p875
(lp876
F15.6
aF15.8
asS'Kane Hop Lab #9 - Citra Pale Ale'
p877
(lp878
F15.6
aF15.9
asS'Community Barrel Aged Legion'
p879
(lp880
F16.0
aF16.1
asS'Three Floyds Zombie Dust'
p881
(lp882
F16.8
aF16.9
asS'Three Floyds Arctic Panzer Wolf'
p883
(lp884
F16.0
aF16.1
asS'Santa Fe Wild Ale #6 (Bordeaux Series)'
p885
(lp886
F15.2
aF15.4
asS'Mothers MILF'
p887
(lp888
F16.4
aF16.5
asS'Hair of the Dog Adam'
p889
(lp890
F16.4
aF16.7
asS'Wind River Wyoming Pale Ale (WPA)'
p891
(lp892
F14.0
aF14.0
asS'Surly Four'
p893
(lp894
F16.0
aF16.2
asS'New Glarus Thumbprint Series Scream IIPA'
p895
(lp896
F15.6
aF15.7
asS'AleSmith Speedway Stout - Brewers Blend: Vietnamese Coffee'
p897
(lp898
F17.2
aF17.7
asS'Big Island Overboard IPA'
p899
(lp900
F14.8
aF15.0
asS'Free State Ironman Imperial Stout'
p901
(lp902
F14.8
aF14.9
asS'Perennial Sump'
p903
(lp904
F16.4
aF16.4
asS'Big Sky IPA'
p905
(lp906
F14.0
aF14.4
asS'Superstition Aphrodisia Pyment - Syrah/Grenache'
p907
(lp908
F16.8
aF17.0
asS'Heavy Seas Uncharted Waters: Siren Noire (2013 -)'
p909
(lp910
F15.2
aF15.5
asS'Alchemist Heady Topper'
p911
(lp912
F17.2
aF17.4
asS'Nebraska Inception Series Franc Blanc'
p913
(lp914
F14.8
aF15.2
asS'Sick N Twisted Panty Droppin Porter'
p915
(lp916
F13.6
aF13.7
asS'Iron Hill Russian Imperial Stout'
p917
(lp918
F15.6
aF15.9
asS'Morgantown Zack Morgans IPA'
p919
(lp920
F13.2
aF13.3
asS'Good People El Gordo Imperial Stout'
p921
(lp922
F16.4
aF16.7
asS'Side Project Fuzzy'
p923
(lp924
F16.4
aF16.7
asS'Midnight Sun Arctic Devil'
p925
(lp926
F16.0
aF16.4
asS'Three Floyds Alpha Klaus'
p927
(lp928
F16.0
aF16.2
asS'New Glarus Thumbprint Series Cran-bic Ale'
p929
(lp930
F15.6
aF15.8
asS'Proclamation Zzzlumber - Barrel-Aged'
p931
(lp932
F14.8
aF15.2
asS'Epic Imperial Red Ale'
p933
(lp934
F14.8
aF14.9
asS'Toppling Goliath XHops Series - Green'
p935
(lp936
F15.2
aF15.1
asS'Stone Imperial Russian Stout - Bourbon Barrel'
p937
(lp938
F16.8
aF17.1
asS'Boulevard Smokestack Series: Saison-Brett'
p939
(lp940
F15.6
aF16.0
asS'Pointe of View Winery H2BC'
p941
(lp942
F11.6
aF11.5
asS'Pipeworks Ninja Vs Unicorn Double IPA'
p943
(lp944
F16.0
aF16.1
asS'Elysian Dragonstooth Stout'
p945
(lp946
F15.2
aF15.4
asS'Smuttynose Big Beer Series: Rocky Road Stout'
p947
(lp948
F15.2
aF15.1
asS'Evil Twin Even More Jesus'
p949
(lp950
F16.4
aF16.5
asS'Lost Abbey Cable Car'
p951
(lp952
F16.8
aF17.1
asS'Avondale Barrel Aged Brett Saison'
p953
(lp954
F16.4
aF16.8
asS'Avery The Maharaja Imperial India Pale Ale'
p955
(lp956
F16.0
aF16.2
asS'Sockeye Big Creek Trappist'
p957
(lp958
F16.0
aF15.6
asS'OEC Experimentalis with Peaches (Pedro Ximenez Barrel)'
p959
(lp960
F15.6
aF15.7
asS'Bluejacket Wary Fiend'
p961
(lp962
F14.8
aF15.4
asS'Wicked Weed Ruffian Imperial Black IPA'
p963
(lp964
F16.0
aF16.2
asS'Great Basin Hop Head Ale'
p965
(lp966
F15.2
aF15.9
asS'Tired Hands Virgins & Diamonds'
p967
(lp968
F16.0
aF16.5
asS'Flying Dog Brewhouse Rarities: Smoked Belgian Stout'
p969
(lp970
F15.2
aF15.2
asS'Melvin Asterisk Double IPA'
p971
(lp972
F15.6
aF15.9
asS'Bluegrass Russian Imperial Porter'
p973
(lp974
F14.4
aF14.7
asS'Firehouse Smoke Jumper Stout'
p975
(lp976
F13.6
aF13.6
asS'Snake River Danimals Farmhouse Saison'
p977
(lp978
F14.4
aF14.8
asS'Payette 12 Gauge Imperial Stout - Barrel Aged'
p979
(lp980
F15.2
aF15.4
asS'Abita Bourbon Street Barrel Aged Imperial Stout'
p981
(lp982
F14.8
aF14.9
asS'Cycle RareR DOS'
p983
(lp984
F16.8
aF16.8
asS'Chama River Dangerous Intensions'
p985
(lp986
F15.2
aF15.4
asS'SPB Devils Harvest American Pale Ale (Redux) (2016 - )'
p987
(lp988
F13.6
aF13.8
asS'Dogfish Head 75 Minute IPA (Cask/Bottle)'
p989
(lp990
F15.2
aF15.5
asS'Prairie Funky Gold Amarillo'
p991
(lp992
F15.2
aF15.5
asS'New Glarus Wisconsin Belgian Red'
p993
(lp994
F16.4
aF16.8
asS'Melvin Clinic ISA'
p995
(lp996
F14.4
aF14.8
asS'Hair of the Dog Cherry Adam from the Wood'
p997
(lp998
F16.0
aF16.5
asS'Russian River Consecration'
p999
(lp1000
F16.8
aF17.0
asS'Trillium Melcher Street IPA - Double Dry Hopped'
p1001
(lp1002
F16.8
aF16.9
asS'Against the Grain / De Molen Bo & Luke'
p1003
(lp1004
F16.0
aF16.4
asS'Dogfish Head Olde School Barleywine'
p1005
(lp1006
F15.2
aF15.4
asS'Saint James Plum Lambic'
p1007
(lp1008
F14.8
aF15.6
asS'Mountain Dragon Tulip Poplar Honey Mead'
p1009
(lp1010
F13.6
aF13.4
asS'Pointe of View Winery Viking Deed'
p1011
(lp1012
F14.0
aF14.2
asS'Squatters 529'
p1013
(lp1014
F15.2
aF15.6
asS'New Glarus Serendipity'
p1015
(lp1016
F16.4
aF16.6
asS'Yellowstone Valley Numbskull IPA'
p1017
(lp1018
F14.4
aF14.9
asS'Three Floyds Dark Lord Russian Imperial Stout (Cognac Coffee)'
p1019
(lp1020
F16.8
aF17.1
asS'Epic Hopulent IPA'
p1021
(lp1022
F14.8
aF15.1
asS'Epic Son of a Baptist'
p1023
(lp1024
F15.6
aF15.5
asS'Midnight Sun 2010 Pop Ten: Barfly'
p1025
(lp1026
F16.4
aF16.5
asS'Vinos Octoberfest'
p1027
(lp1028
F12.8
aF13.0
asS'Olde Hickory The Event Horizon'
p1029
(lp1030
F16.4
aF16.5
asS'Nebraska Inception Series Ardent Son'
p1031
(lp1032
F14.8
aF15.2
asS'NOLA Sauvage'
p1033
(lp1034
F14.8
aF15.1
asS'Perennial Blue Label Maman - Evan Williams 23'
p1035
(lp1036
F16.4
aF16.6
asS'Anthem Pappy Burleson'
p1037
(lp1038
F16.8
aF16.9
asS'Three Floyds Alpha King'
p1039
(lp1040
F16.0
aF16.4
asS'Half Acre Galactic Double Daisy Cutter'
p1041
(lp1042
F16.0
aF16.3
asS'Cycle Pallet 2'
p1043
(lp1044
F16.8
aF16.9
asS'Cycle Barrel-Aged Hazelnut Imperial Stout'
p1045
(lp1046
F17.2
aF17.3
asS'Black Raven Wisdom Seeker Double IPA'
p1047
(lp1048
F15.6
aF16.1
asS'Urban Family Lady of the Night'
p1049
(lp1050
F15.6
aF15.9
asS'Atlas Brew Works NSFW'
p1051
(lp1052
F15.2
aF15.0
asS'Brash Cortado'
p1053
(lp1054
F16.0
aF16.3
asS'Marble Imperial Stout'
p1055
(lp1056
F15.6
aF15.9
asS'Straight To Ale Laika Russian Imperial Stout - Bourbon Barrel Aged'
p1057
(lp1058
F15.2
aF15.4
asS'Pointe of View Winery Apple Wine'
p1059
(lp1060
F13.2
aF13.5
asS'Maine Beer Another One'
p1061
(lp1062
F16.0
aF16.3
asS'Firehouse Prodigy Porter'
p1063
(lp1064
F14.4
aF14.3
asS'Prairie ??Merica'
p1065
(lp1066
F15.2
aF15.6
asS'Jackie O??s Vanilla & Coffee Bean Bourbon Barrel Dark Apparition'
p1067
(lp1068
F16.8
aF16.7
asS'De Garde The Peach'
p1069
(lp1070
F16.8
aF17.1
asS'Revolution Barrel Aged Institutionalized Barley Wine'
p1071
(lp1072
F15.6
aF16.0
asS'Sweetwater Bourbon Barrel Aged Imperial Stout'
p1073
(lp1074
F15.6
aF15.9
asS'Fairhope (Take The) Causeway IPA'
p1075
(lp1076
F14.4
aF14.9
asS'Maine Beer Lunch'
p1077
(lp1078
F16.0
aF16.3
asS'Big Timber Porter'
p1079
(lp1080
F14.4
aF14.7
asS'Austin Beerworks Heavy Machinery IPA Series #2: Double IPA'
p1081
(lp1082
F15.6
aF16.0
asS'Free State Stormwatch Dark Ale'
p1083
(lp1084
F14.8
aF15.1
asS'Midnight Sun 2009 Crew Brews: Brewtality'
p1085
(lp1086
F15.2
aF15.5
asS'Nebraska Little Betty Russian Imperial Stout'
p1087
(lp1088
F14.8
aF14.9
asS'Three Floyds Rye Da Tiger'
p1089
(lp1090
F16.0
aF16.2
asS'Maine Beer Weez'
p1091
(lp1092
F15.6
aF15.6
asS'Voodoo Grande Negro Voodoo Papi (Bourbon Barrel Aged)'
p1093
(lp1094
F17.2
aF17.5
asS'Melvin Killer Bees'
p1095
(lp1096
F13.6
aF13.6
asS'Chandeleur Lil Smack IPA'
p1097
(lp1098
F13.6
aF13.7
asS'Crow Peak Redwater Ale'
p1099
(lp1100
F12.8
aF13.3
asS'Alba Vineyard Forbidden'
p1101
(lp1102
F15.6
aF15.9
asS'Epic / DC Brau Brainless: Corruption'
p1103
(lp1104
F14.8
aF15.1
asS'NOLA Girl Stout Cookie'
p1105
(lp1106
F15.2
aF15.3
asS'Toppling Goliath Xhops Series - Gamma'
p1107
(lp1108
F15.2
aF15.3
asS'Toppling Goliath / Tree House David'
p1109
(lp1110
F16.0
aF16.5
asS'SPB Jack the Sipper'
p1111
(lp1112
F13.2
aF13.4
asS'Nebraska Inception Series Tart?? Apricot Saison'
p1113
(lp1114
F14.8
aF14.9
asS'OEC Experimentalis With Meyer Lemons (Pinot Noir/Gin Barrel)'
p1115
(lp1116
F16.0
aF16.7
asS'Nebraska India Pale Ale (2011- )'
p1117
(lp1118
F14.4
aF14.5
asS'Cigar City / Mikkeller Nielsbohrium'
p1119
(lp1120
F16.4
aF16.4
asS'Three Floyds Behemoth - Bourbon Barrel'
p1121
(lp1122
F16.0
aF16.2
asS'Town Hall Wee Heavy'
p1123
(lp1124
F16.0
aF16.3
asS'Fargo Roustabout Stout'
p1125
(lp1126
F12.8
aF12.8
asS'Right Proper Diamonds, Fur Coat, Champagne'
p1127
(lp1128
F15.6
aF16.0
asS'18th Street Bitches Bank'
p1129
(lp1130
F16.4
aF16.3
asS'Laughing Sun Sinister Pear'
p1131
(lp1132
F12.8
aF12.2
asS'American Solera Foeder Cerise'
p1133
(lp1134
F16.8
aF17.2
asS'Free State Winterfest IPA'
p1135
(lp1136
F14.8
aF14.6
asS'Bullfrog Le Roar Grrrz Druiven'
p1137
(lp1138
F16.4
aF16.9
asS'Bayou Teche Biere Joi Barrel Aged'
p1139
(lp1140
F14.4
aF14.5
asS'Three Floyds Quit Hitting Yourself'
p1141
(lp1142
F16.0
aF16.2
asS'Straight To Ale Laika Russian Imperial Stout - Cabernet Barrel Aged'
p1143
(lp1144
F14.8
aF15.1
asS'Kona Da Grind Buzz Kona Coffee Imperial Stout'
p1145
(lp1146
F15.2
aF15.4
asS'Allagash Farm to Face'
p1147
(lp1148
F15.6
aF16.0
asS'Goose Island Bourbon County Stout - Coffee'
p1149
(lp1150
F16.8
aF17.1
asS'Foundation Epiphany IPA'
p1151
(lp1152
F16.4
aF16.5
asS'Grey Sail Captain??s Daughter'
p1153
(lp1154
F15.2
aF15.6
asS'Big Sky Bobos Robust Porter'
p1155
(lp1156
F14.4
aF14.6
asS'Jackie O??s Bourbon Barrel Oro Negro'
p1157
(lp1158
F16.8
aF17.1
asS'Bridge Brew Works Trubell'
p1159
(lp1160
F12.8
aF13.1
asS'Wicked Weed Dark Age Bourbon Stout'
p1161
(lp1162
F16.0
aF16.4
asS'Kona Pipeline Porter'
p1163
(lp1164
F14.0
aF14.2
asS'Kane A Night to End All Dawns - Coffee'
p1165
(lp1166
F16.0
aF15.9
asS'Blackberry Farm Apricot Saison'
p1167
(lp1168
F14.8
aF14.8
asS'Town Hall Ol Jack Frost'
p1169
(lp1170
F15.6
aF15.9
asS'Against the Grain Tropical Segway Kitten'
p1171
(lp1172
F14.8
aF15.3
asS'Iron Hill Bourbon (Tom) Barleywine'
p1173
(lp1174
F15.6
aF15.8
asS'Cigar City Cognac Barrel-Aged Imperial Sweet Stout'
p1175
(lp1176
F16.4
aF16.4
asS'Melvin Hubert MPA'
p1177
(lp1178
F15.2
aF15.3
asS'Hill Farmstead Citra Single Hop Pale Ale'
p1179
(lp1180
F16.4
aF16.6
asS'DC Brau For Others'
p1181
(lp1182
F16.0
aF16.3
asS'Bullfrog Le Roar Grrrz Aardbei'
p1183
(lp1184
F16.0
aF16.3
asS'Wicked Weed Framboos Morte'
p1185
(lp1186
F16.4
aF16.3
asS'Nebraska HopAnomaly'
p1187
(lp1188
F14.4
aF14.6
asS'SPB Cicada Series 2014 IPA'
p1189
(lp1190
F14.4
aF14.7
asS'Indeed D.I.D.D.C.W.Q.M.S'
p1191
(lp1192
F16.4
aF16.8
asS'Brickway Vanilla Coffee Stout'
p1193
(lp1194
F14.8
aF14.6
asS'Stillwater / Casita Cerveceria On Fleek'
p1195
(lp1196
F15.6
aF15.6
asS'Free State Owd Macs Imperial Stout'
p1197
(lp1198
F16.4
aF16.8
asS'NOLA Irish Channel Stout'
p1199
(lp1200
F14.4
aF14.7
asS'Anchorage Time Waits For No One'
p1201
(lp1202
F17.6
aF17.9
asS'Stillwater Import Series Vol. 5 Debauched - Brunello Barrel'
p1203
(lp1204
F15.2
aF15.5
asS'Funk Factory Geuzeria / Oso Frampaars'
p1205
(lp1206
F17.6
aF17.8
asS'AleSmith Speedway Stout'
p1207
(lp1208
F17.2
aF17.4
asS'Against the Grain Gnight Ryder'
p1209
(lp1210
F14.8
aF15.3
asS'Abita Shotgun Double IPA'
p1211
(lp1212
F14.8
aF15.2
asS'Carters De-Railed IPA'
p1213
(lp1214
F15.6
aF16.2
asS'Hill Farmstead Society & Solitude #4'
p1215
(lp1216
F16.4
aF16.6
asS'Dempseys Valkyrie Red'
p1217
(lp1218
F11.6
aF11.4
asS'Big Hole Head Smashed In'
p1219
(lp1220
F14.8
aF14.7
asS'Midnight Sun 2014 Alaskana Series: Termination Dust'
p1221
(lp1222
F15.2
aF15.7
asS'Hill Farmstead Society & Solitude #2'
p1223
(lp1224
F16.4
aF16.7
asS'Hill Farmstead Society & Solitude #3'
p1225
(lp1226
F16.4
aF16.7
asS'Revival White Electric Coffee Stout'
p1227
(lp1228
F14.0
aF14.3
asS'Selins Grove The Phoenix Kriek'
p1229
(lp1230
F16.4
aF16.8
asS'Laughing Dog Hop Dog Harvest Pale Ale'
p1231
(lp1232
F14.8
aF14.9
asS'Marble Reserve Ale'
p1233
(lp1234
F14.8
aF15.2
asS'Laughing Sun Feast Like a Sultan IPA'
p1235
(lp1236
F14.4
aF14.3
asS'Russian River Supplication'
p1237
(lp1238
F16.8
aF17.0
asS'Sockeye Barrel Aged Seven Devils Imperial Stout'
p1239
(lp1240
F16.0
aF16.2
asS'Dogfish Head 120 Minute IPA'
p1241
(lp1242
F15.6
aF15.7
asS'Superstition Black Berry White'
p1243
(lp1244
F17.2
aF17.6
asS'Avery Tweak'
p1245
(lp1246
F16.0
aF16.3
asS'Maui Brewing Coconut Hiwa Porter'
p1247
(lp1248
F14.8
aF15.0
asS'Dominion Millennium Oak Aged'
p1249
(lp1250
F15.6
aF16.0
asS'Steel Toe Before the Dawn'
p1251
(lp1252
F16.0
aF16.3
asS'Goose Island Nutulhu'
p1253
(lp1254
F16.4
aF17.0
asS'SPB Mississippi Fire Ant: Bourbon Barrel Aged'
p1255
(lp1256
F15.2
aF15.6
asS'Bosque (NM) Scale Tipper IPA'
p1257
(lp1258
F15.6
aF15.9
asS'Diamond Bear Dogtown Brown'
p1259
(lp1260
F12.8
aF13.1
asS'Hill Farmstead Dorothy - Wine Barrel Aged'
p1261
(lp1262
F16.8
aF17.4
asS'Lazy Magnolia Southern Gentleman'
p1263
(lp1264
F14.8
aF15.4
asS'Side Project / De Garde Orviamo'
p1265
(lp1266
F16.8
aF17.2
asS'Westbrook 2nd Anniversary Capn Skoons Ballistic Stout'
p1267
(lp1268
F15.6
aF15.7
asS'Terrapin Oaked Wake-n-Bake Coffee Oatmeal Imperial Stout'
p1269
(lp1270
F16.0
aF16.0
asS'Bluegrass Bourbon Barrel Smoked Stout'
p1271
(lp1272
F15.6
aF15.9
asS'Dogfish Head URKontinent'
p1273
(lp1274
F14.8
aF15.2
asS'Tr??egs Nugget Nectar Ale'
p1275
(lp1276
F16.0
aF16.1
asS'Lazy Magnolia Black Creek Southern Style Imperial Stout'
p1277
(lp1278
F14.0
aF13.8
asS'Flying Dog Kujo'
p1279
(lp1280
F15.2
aF15.3
asS'Lewis and Clark Tumbleweed IPA'
p1281
(lp1282
F15.2
aF15.3
asS'Bridge Brew Works Moxxee Coffee Stout'
p1283
(lp1284
F15.2
aF15.2
asS'Silver Peak Peavine Porter'
p1285
(lp1286
F14.0
aF14.0
asS'Portsmouth Barleywine'
p1287
(lp1288
F15.6
aF15.9
asS'Lickinghole Creek Great Commander'
p1289
(lp1290
F16.4
aF16.5
asS'Smuttynose Big A IPA'
p1291
(lp1292
F15.2
aF15.6
asS'Blackberry Farm Classic Saison'
p1293
(lp1294
F15.2
aF15.3
asS'Maine Beer I'
p1295
(lp1296
F16.4
aF16.4
asS'Laughing Dog The Dogfather Imperial Stout - Bourbon Barrel'
p1297
(lp1298
F14.8
aF15.0
asS'Jester King / Mikkeller Weasel Rodeo'
p1299
(lp1300
F15.2
aF15.6
asS'Foolproof Raincloud Porter'
p1301
(lp1302
F14.0
aF14.3
asS'Deciduous Cumulation'
p1303
(lp1304
F16.0
aF16.1
asS'Good People Hitchhiker American IPA'
p1305
(lp1306
F14.4
aF14.7
asS'Goose Island Imperial IPA'
p1307
(lp1308
F16.0
aF16.2
asS'Core ESB'
p1309
(lp1310
F14.4
aF14.5
asS'Hill Farmstead Juicy'
p1311
(lp1312
F16.8
aF17.2
asS'Russian River Beatification (Batch 002 +)'
p1313
(lp1314
F16.4
aF16.9
asS'Kelsen Vendel Imperial Stout'
p1315
(lp1316
F16.0
aF15.8
asS'Against the Grain Rico Sauvin'
p1317
(lp1318
F14.8
aF15.0
asS'Yazoo / New Belgium Embrace The Funk Series: Rufus'
p1319
(lp1320
F16.0
aF16.6
asS'Willimantic Willi Whammer'
p1321
(lp1322
F16.0
aF16.2
asS'DC Brau On the Wings of Armageddon'
p1323
(lp1324
F15.6
aF15.8
asS'Nebraska Reserve Series Sexy Betty'
p1325
(lp1326
F15.6
aF15.8
asS'Lazy Magnolia Me and the Dev-Ale'
p1327
(lp1328
F13.2
aF13.3
asS'Nebraska Inception Series #08 - Blanc is The New White'
p1329
(lp1330
F14.8
aF15.7
asS'Prairie Funky Gold Simcoe'
p1331
(lp1332
F15.6
aF15.8
asS'Westbrook Mexican Cake Imperial Stout - Tequila Barrel'
p1333
(lp1334
F16.4
aF16.4
asS'Abita Select Imperator'
p1335
(lp1336
F14.0
aF14.1
asS'Hill Farmstead Susan'
p1337
(lp1338
F16.4
aF16.7
asS'Iron Hill Quadrupel (Quadfather)'
p1339
(lp1340
F14.8
aF15.2
asS'New Glarus Dancing Man Wheat'
p1341
(lp1342
F15.6
aF15.7
asS'Against the Grain Citra Ass Down'
p1343
(lp1344
F14.8
aF15.0
asS'Brooklyn Black Chocolate Stout'
p1345
(lp1346
F16.0
aF16.1
asS'Firehouse Red'
p1347
(lp1348
F12.8
aF13.1
asS'Victory Old Horizontal'
p1349
(lp1350
F16.0
aF16.3
asS'Maui Brewing Freight Trains IPA'
p1351
(lp1352
F14.8
aF15.2
asS'Town Hall Russian Roulette'
p1353
(lp1354
F16.4
aF16.3
asS'Free State Hop Jack Ale'
p1355
(lp1356
F14.4
aF14.7
asS'Pipeworks Emerald Grouper'
p1357
(lp1358
F16.0
aF16.3
asS'Tallgrass Wooden Rooster'
p1359
(lp1360
F14.8
aF14.9
asS'Three Floyds / The Bruery Rue DFloyd'
p1361
(lp1362
F16.4
aF16.5
asS'OEC Exilis'
p1363
(lp1364
F15.2
aF15.6
asS'Schramms The Heart of Darkness'
p1365
(lp1366
F18.0
aF18.0
asS'Snake River Le Serpent'
p1367
(lp1368
F15.2
aF15.7
asS'Ozark Bourbon Barrel Aged Double Cream Stout'
p1369
(lp1370
F15.6
aF15.8
asS'Surly Blakkr'
p1371
(lp1372
F15.6
aF15.8
asS'DuClaw Repent'
p1373
(lp1374
F15.2
aF15.5
asS'Prairie Bomb! - Balcones Barrel Aged'
p1375
(lp1376
F16.4
aF16.5
asS'Terrapin Oaked Aged Rye Squared'
p1377
(lp1378
F16.0
aF16.2
asS'Hill Farmstead Ann'
p1379
(lp1380
F17.2
aF17.5
asS'Nebraska Reserve Series Melange A Trois'
p1381
(lp1382
F15.2
aF15.3
asS'Westbrook 4th Anniversary Chocolate Coconut Almond Imperial Stout'
p1383
(lp1384
F15.6
aF15.8
asS'Fremont Dark Star - Bourbon Barrel'
p1385
(lp1386
F16.4
aF16.5
asS'Lickinghole Creek Heir Apparent'
p1387
(lp1388
F15.6
aF15.7
asS'Westbrook Mexican Cake Imperial Stout - Bourbon Barrel (2015)'
p1389
(lp1390
F16.4
aF16.7
asS'Vinos Imperial Stout'
p1391
(lp1392
F14.0
aF14.3
asS'Liquid Bread Liberty Stout'
p1393
(lp1394
F15.2
aF15.0
asS'Right Proper Kick.Kick.Snare'
p1395
(lp1396
F15.2
aF15.5
asS'Big Sky Shake-A-Day India Pale Ale'
p1397
(lp1398
F14.4
aF14.8
asS'Fremont Dark Star - Bourbon Barrel Spice Wars'
p1399
(lp1400
F16.0
aF16.2
asS'Great Divide Hercules Double IPA'
p1401
(lp1402
F16.0
aF16.1
asS'Smuttynose Smuttlabs Apple Brandy Barrel Aged Gravitation'
p1403
(lp1404
F16.8
aF16.7
asS'Uinta Crooked Line Labyrinth Black Ale'
p1405
(lp1406
F16.0
aF16.1
asS'Great Divide Yeti Imperial Stout - Oak Aged'
p1407
(lp1408
F16.8
aF16.8
asS'Prairie Brett C.'
p1409
(lp1410
F15.6
aF15.9
asS'Selkirk Abbey Infidel'
p1411
(lp1412
F14.8
aF15.0
asS'Superstition Aphrodisia Pyment - Cabernet/Syrah'
p1413
(lp1414
F16.4
aF16.8
asS'NOLA / 7venth Sun House of the Rising'
p1415
(lp1416
F14.8
aF15.0
asS'Big Dog??s Sled Dog Imperial Stout'
p1417
(lp1418
F14.4
aF14.7
asS'Upstream Gianduja Imperial Rye Brown Ale'
p1419
(lp1420
F14.8
aF15.1
asS'Core Barneys Imperial Red'
p1421
(lp1422
F13.6
aF13.5
asS'Tired Hands Sticky Drippy Crystals'
p1423
(lp1424
F16.4
aF16.8
asS'18th Street Bitches Bank - Cognac Barrel Aged'
p1425
(lp1426
F16.4
aF16.4
asS'Lost Abbey The Angels Share - Bourbon Barrel'
p1427
(lp1428
F16.4
aF16.9
asS'Diamond Bear Paradise Porter'
p1429
(lp1430
F13.2
aF13.2
asS'Uinta Crooked Line Stompin Grounds Coffee Stout'
p1431
(lp1432
F15.2
aF15.4
asS'Against the Grain 70K'
p1433
(lp1434
F16.4
aF16.6
asS'Lazy Magnolia 10'
p1435
(lp1436
F14.4
aF14.2
asS'Wicked Weed Cherry Go Lightly'
p1437
(lp1438
F15.6
aF16.1
asS'Bayou Teche Saison dEcrevisse (-2015)'
p1439
(lp1440
F14.0
aF14.4
asS'Jester King (Fn to)'
p1441
(lp1442
F15.6
aF16.2
asS'Central Waters Brewers Reserve Bourbon Barrel Scotch Ale'
p1443
(lp1444
F15.6
aF16.0
asS'Superstition Marion Mead - Still'
p1445
(lp1446
F16.4
aF16.5
asS'Big Island Golden Sabbath'
p1447
(lp1448
F14.0
aF14.0
asS'Dominion Millennium'
p1449
(lp1450
F14.8
aF15.1
asS'Toppling Goliath Sol Hunter Pale Ale'
p1451
(lp1452
F15.6
aF15.6
asS'Alpenfire smoke'
p1453
(lp1454
F16.0
aF16.5
asS'Hair of the Dog Otto from the Wood'
p1455
(lp1456
F16.0
aF16.5
asS'Blackberry Farm Brett Saison'
p1457
(lp1458
F15.2
aF15.5
asS'Westbrook Mexican Cake Imperial Stout'
p1459
(lp1460
F16.4
aF16.5
asS'Anchorage The Tide and Its Takers Triple'
p1461
(lp1462
F15.6
aF15.8
asS'Epic / Crooked Stave Elder Brett Saison-Brett Golden Ale'
p1463
(lp1464
F14.8
aF15.2
asS'Thomas Hooker Liberator Doppelbock'
p1465
(lp1466
F15.2
aF15.5
asS'Core Oatmeal Stout'
p1467
(lp1468
F14.8
aF14.9
asS'New England Coriolis'
p1469
(lp1470
F16.8
aF17.2
asS'Blackberry Farm Blackberry Rye'
p1471
(lp1472
F15.2
aF15.7
asS'Thunderhead Espresso Stout'
p1473
(lp1474
F14.8
aF14.9
asS'Ozark Cream Stout'
p1475
(lp1476
F14.8
aF15.0
asS'Straight To Ale Illudium'
p1477
(lp1478
F14.4
aF14.9
asS'Goose Island Bourbon County Stout'
p1479
(lp1480
F17.2
aF17.2
asS'Bridge Brew Works Peregrine Porter'
p1481
(lp1482
F14.4
aF14.4
asS'Melvin 2x4'
p1483
(lp1484
F15.6
aF16.0
asS'Lazy Magnolia Timber Beast'
p1485
(lp1486
F14.8
aF14.8
asS'Wicked Weed Pernicious IPA'
p1487
(lp1488
F15.6
aF15.8
asS'Prairie Pirate Bomb!'
p1489
(lp1490
F16.8
aF16.8
asS'AleWerks Brewmasters Reserve Bourbon Barrel Porter'
p1491
(lp1492
F15.6
aF15.7
asS'Stoneface IPA'
p1493
(lp1494
F15.2
aF15.4
asS'Fossil Cove La Brea Brown'
p1495
(lp1496
F12.8
aF12.8
asS'Cigar City Marshal Zhukovs Imperial Stout'
p1497
(lp1498
F16.4
aF16.7
asS'Terminal BrewHouse Southsidenstein Stout'
p1499
(lp1500
F14.8
aF14.8
asS'Iron Hill Bourbon Porter'
p1501
(lp1502
F14.8
aF15.1
asS'Wiseacre Gotta Get Up to Get Down Coffee Milk Stout'
p1503
(lp1504
F14.8
aF15.1
asS'Evil Twin Auld Yin'
p1505
(lp1506
F16.0
aF16.1
asS'Maple River Winery Honey Apple Wine'
p1507
(lp1508
F12.0
aF12.1
asS'Toppling Goliath Mornin Delight'
p1509
(lp1510
F17.6
aF17.8
asS'Parish Ghost In The Machine'
p1511
(lp1512
F16.0
aF16.2
asS'Jester King Nocturn Chrysalis (Batch 2+)'
p1513
(lp1514
F15.6
aF15.7
asS'De Garde The Anniversary'
p1515
(lp1516
F16.8
aF17.0
asS'Stillwater Barrel Aged Series - Cellar Door'
p1517
(lp1518
F15.6
aF15.7
asS'Fargo Stone??s Throw Scottish Ale'
p1519
(lp1520
F12.0
aF11.7
asS'Brash Vulgar Display of Power'
p1521
(lp1522
F16.4
aF16.5
asS'Carters Saison De Carter'
p1523
(lp1524
F14.4
aF14.5
asS'Boneyard Notorious IPA3'
p1525
(lp1526
F16.0
aF16.3
asS'Wicked Weed Red Angel'
p1527
(lp1528
F16.4
aF16.4
asS'Fremont Abominable - Bourbon Barrel'
p1529
(lp1530
F16.0
aF16.3
asS'Lucky Bucket Whiskey Barrel Aged Certified Evil'
p1531
(lp1532
F14.4
aF14.6
asS'Harvest Moon Oceanus Procellarum'
p1533
(lp1534
F16.4
aF16.4
asS'Stone Imperial Russian Stout'
p1535
(lp1536
F16.8
aF17.0
asS'Evil Twin Imperial Biscotti Break - DeCicco Version'
p1537
(lp1538
F16.0
aF16.3
asS'Crooked Stave Nightmare on Brett (Raspberry)'
p1539
(lp1540
F16.4
aF16.5
asS'Revival Double Black IPA'
p1541
(lp1542
F14.4
aF14.7
asS'Prairie Bomb!'
p1543
(lp1544
F16.8
aF16.8
asS'Blackberry Farm New World Cuvee Dry Hop Saison (2016)'
p1545
(lp1546
F15.2
aF15.1
asS'Westbrook Shanes Big DIPA'
p1547
(lp1548
F15.2
aF15.6
asS'Superstition Straw Berry White'
p1549
(lp1550
F18.0
aF18.4
asS'NoDa Hop, Drop ??n Roll IPA'
p1551
(lp1552
F15.6
aF15.8
asS'Iron Hill Oak Aged Old Tom'
p1553
(lp1554
F16.0
aF16.5
asS'American Solera Foeder Gold'
p1555
(lp1556
F16.4
aF16.9
asS'Good People Snake Handler'
p1557
(lp1558
F14.8
aF14.9
asS'Oskar Blues Ten FIDY'
p1559
(lp1560
F16.4
aF16.6
asS'Hill Farmstead Damon'
p1561
(lp1562
F16.8
aF16.9
asS'Marble D.I.P.A.'
p1563
(lp1564
F14.8
aF15.0
asS'Bells Bourbon Barrel Batch 9000 Ale'
p1565
(lp1566
F16.4
aF16.5
asS'Funky Buddha Wide Awake Its Morning'
p1567
(lp1568
F16.8
aF17.0
asS'Yazoo Embrace the Funk Series: Deux Rouges'
p1569
(lp1570
F15.2
aF15.8
asS'Melovino Southern Berry'
p1571
(lp1572
F16.4
aF17.1
asS'Jackie O??s Coffee Bourbon Barrel Oil Of Aphrodite'
p1573
(lp1574
F16.4
aF16.7
asS'New England Imperial Stout Trooper'
p1575
(lp1576
F15.6
aF15.8
asS'SPB Cicada Series 2015 IPA'
p1577
(lp1578
F14.4
aF14.5
asS'James E. Pepper 1776 American Brown Ale'
p1579
(lp1580
F15.2
aF15.3
asS'Superstition Fruit of Venus'
p1581
(lp1582
F17.2
aF17.5
asS'Superstition Super Bee'
p1583
(lp1584
F17.2
aF17.3
asS'Allagash Cuve dIndustrial'
p1585
(lp1586
F16.4
aF16.4
asS'Great Divide Yeti Imperial Stout'
p1587
(lp1588
F16.4
aF16.5
asS'Laughing Dog Sneaky Pete Imperial IPA'
p1589
(lp1590
F14.8
aF14.9
asS'Perennial Vanilla Abraxas'
p1591
(lp1592
F16.8
aF16.9
asS'Black Raven Grandfather Raven Imperial Stout'
p1593
(lp1594
F15.6
aF15.6
asS'Epic Brainless IPA'
p1595
(lp1596
F14.8
aF15.0
asS'Grey Sail Stargazer Imperial Stout'
p1597
(lp1598
F15.6
aF16.1
asS'Kona Bourbon Barrel Aged Black Sand Porter'
p1599
(lp1600
F15.2
aF15.0
asS'Superstition Date Night'
p1601
(lp1602
F16.4
aF16.8
asS'Schramms Apple'
p1603
(lp1604
F16.8
aF16.8
asS'Parish Dr Hoptagon'
p1605
(lp1606
F14.4
aF14.7
asS'AleWerks Bitter Valentine'
p1607
(lp1608
F16.4
aF16.3
asS'Epic Double Barrel Big Bad Baptist'
p1609
(lp1610
F16.4
aF16.9
asS'Big Island / Caldera Red Sea Imperial Red Gose'
p1611
(lp1612
F15.2
aF15.4
asS'Kane Head High'
p1613
(lp1614
F15.6
aF16.0
asS'Evil Twin Imperial Biscotti Break Raspberry Umami'
p1615
(lp1616
F16.4
aF16.3
asS'Bridge Brew Works The Blunt'
p1617
(lp1618
F13.2
aF12.9
asS'Great Lakes Chillwave Double IPA'
p1619
(lp1620
F15.6
aF16.0
asS'Toppling Goliath / Mikkeller Nelson Schmelsson'
p1621
(lp1622
F15.2
aF15.5
asS'Trinity Decadence Imperial IPA'
p1623
(lp1624
F14.8
aF14.9
asS'AleSmith Speedway Stout - Bourbon Barrel Aged'
p1625
(lp1626
F17.2
aF17.6
asS'Perrin No Rules Vietnamese Porter'
p1627
(lp1628
F16.4
aF16.8
asS'La Cumbre Project Dank'
p1629
(lp1630
F16.0
aF16.0
asS'Tallgrass Ethos IPA'
p1631
(lp1632
F14.8
aF14.9
asS'Hoppers Summerset Saison'
p1633
(lp1634
F15.2
aF15.6
asS'Sockeye Dagger Falls IPA'
p1635
(lp1636
F14.8
aF15.0
asS'Abita Wrought Iron IPA'
p1637
(lp1638
F14.0
aF14.1
asS'New Glarus Raspberry Tart'
p1639
(lp1640
F16.4
aF16.4
asS'Westbrook Anfernee - Whiskey Barrel Aged'
p1641
(lp1642
F15.6
aF15.6
asS'Superstition Berry White'
p1643
(lp1644
F17.6
aF17.9
asS'Lucky Bucket IPA'
p1645
(lp1646
F14.0
aF14.4
asS'Kane Overhead'
p1647
(lp1648
F15.2
aF15.3
asS'The Veil Crucial Taunt Double IPA'
p1649
(lp1650
F15.6
aF15.9
asS'Stillwater Give-Way'
p1651
(lp1652
F15.6
aF16.0
asS'Three Floyds Dark Lord Russian Imperial Stout'
p1653
(lp1654
F17.2
aF17.3
asS'Free State Belgian Muse IPA'
p1655
(lp1656
F14.8
aF15.1
asS'Prairie Paradise'
p1657
(lp1658
F16.0
aF16.4
asS'Diamond Bear Two Term Double IPA'
p1659
(lp1660
F12.8
aF12.9
asS'Westbrook Mexican Cake Imperial Stout - Pappy Barrel'
p1661
(lp1662
F17.6
aF17.7
asS'SPB Crowd Control'
p1663
(lp1664
F16.4
aF16.7
asS'Nebraska Reserve Series Responsibly'
p1665
(lp1666
F14.4
aF14.8
asS'Woodland Empire Beast Moans'
p1667
(lp1668
F14.8
aF15.2
asS'Maple River Winery Honeycomb Plum'
p1669
(lp1670
F13.2
aF13.3
asS'Bells Traverse City Whiskey Barrel-Aged Expedition Stout'
p1671
(lp1672
F16.4
aF16.4
asS'DuClaw Black Jack Stout'
p1673
(lp1674
F15.2
aF15.2
asS'Big Sky Shake-a-Day Mai Tai IPA'
p1675
(lp1676
F14.4
aF14.9
asS'Sockeye Hopnoxious Imperial IPA'
p1677
(lp1678
F15.2
aF15.1
asS'NOLA Piety'
p1679
(lp1680
F15.2
aF16.1
asS'OEC Aeris'
p1681
(lp1682
F15.6
aF15.8
asS'Moonlight Meadery Destiny'
p1683
(lp1684
F17.2
aF17.4
asS'Marble Imperial Red Ale'
p1685
(lp1686
F14.8
aF15.1
asS'Black Tooth Hot Streak IPA'
p1687
(lp1688
F13.6
aF14.0
asS'McFate Imperial Candy Bar Stout - Barrel Aged'
p1689
(lp1690
F17.2
aF16.9
asS'Westbrook Siberian Black Magic Panther - Apple Brandy Barrel'
p1691
(lp1692
F16.0
aF16.3
asS'Toppling Goliath ReGifter Double IPA'
p1693
(lp1694
F15.6
aF16.0
asS'Triumph Imperial Stout'
p1695
(lp1696
F15.2
aF15.1
asS'Allagash St. Klippenstein'
p1697
(lp1698
F15.6
aF15.9
asS'Kettle House Olde Bongwater Hemp Porter'
p1699
(lp1700
F14.4
aF14.8
asS'Three Floyds Bourbon Barrel Aged Dark Lord De Muerte'
p1701
(lp1702
F16.4
aF16.4
asS'Three Floyds Blakkr'
p1703
(lp1704
F15.6
aF15.9
asS'Good People Fatso Imperial Stout'
p1705
(lp1706
F14.8
aF14.9
asS'Dogfish Head Indian Brown Ale'
p1707
(lp1708
F14.8
aF15.3
asS'Big Island Holy Humulus'
p1709
(lp1710
F14.4
aF14.4
asS'Jester King Bire de Syrah'
p1711
(lp1712
F16.0
aF16.2
asS'Abita Bourbon Street Coffee Stout'
p1713
(lp1714
F14.8
aF14.7
asS'COAST The Boy King Double IPA'
p1715
(lp1716
F15.6
aF15.9
asS'Stoneface Hopulization'
p1717
(lp1718
F15.6
aF15.8
asS'Against the Grain 35K Stout'
p1719
(lp1720
F14.8
aF14.9
asS'Melvin Drunken Master'
p1721
(lp1722
F15.2
aF15.4
asS'Chicago Hardway IPA'
p1723
(lp1724
F14.0
aF14.2
asS'Cascade Noyaux'
p1725
(lp1726
F16.0
aF16.2
asS'Side Project Bleuet du Fermier'
p1727
(lp1728
F17.2
aF17.4
asS'Selins Grove Bourbon St. Fillans Wee Heavy'
p1729
(lp1730
F16.8
aF16.9
asS'Toppling Goliath pseudoSue'
p1731
(lp1732
F16.4
aF16.5
asS'Saint Arnold Bishops Barrel #1'
p1733
(lp1734
F16.0
aF16.2
asS'Schramms Cranberry'
p1735
(lp1736
F17.6
aF17.9
asS'Healthberry Farm Honey River Tulip Poplar Mead'
p1737
(lp1738
F14.0
aF14.7
asS'Stillwater Beer Table - Table Beer'
p1739
(lp1740
F15.2
aF15.3
asS'Stoneface RIS'
p1741
(lp1742
F15.6
aF15.9
asS'Tenaya Creek Old Jackalope Barleywine'
p1743
(lp1744
F14.8
aF15.2
asS'Greenbrier Valley Wild & Wonderful Series #2: Hefeweizen'
p1745
(lp1746
F13.6
aF13.0
asS'AleWerks Cafe Royale'
p1747
(lp1748
F16.0
aF16.0
asS'Salty Nut Dahkness Stout'
p1749
(lp1750
F14.4
aF14.3
asS'Prairie Pirate Noir'
p1751
(lp1752
F15.6
aF15.7
asS'Westbrook Siberian Black Magic Panther - Bourbon Barrel'
p1753
(lp1754
F16.0
aF15.9
asS'Surly Furious'
p1755
(lp1756
F16.0
aF16.1
asS'Fairhope Painted Black IPA'
p1757
(lp1758
F14.8
aF14.9
asS'Foothills Seeing Double IPA'
p1759
(lp1760
F15.2
aF15.6
asS'Crow Peak Bear Butte Brown Ale'
p1761
(lp1762
F13.2
aF13.4
asS'Crow Peak Roughlocktoberfest'
p1763
(lp1764
F14.0
aF15.2
asS'Foothills Baltic Porter'
p1765
(lp1766
F15.6
aF15.7
asS'Tenaya Creek Imperial Stout'
p1767
(lp1768
F15.2
aF15.2
asS'Against the Grain London Balling'
p1769
(lp1770
F15.2
aF15.4
asS'Saint James Daily Wages'
p1771
(lp1772
F15.2
aF15.6
asS'Wicked Weed M??nage-a-Freak'
p1773
(lp1774
F16.0
aF16.3
asS'Trillium Fort Point Pale Ale - Galaxy Dry Hopped'
p1775
(lp1776
F16.4
aF16.5
asS'Cycle / 3 Sons Rare Scooop'
p1777
(lp1778
F18.0
aF18.0
asS'Midnight Sun Monks Mistress (Bourbon)'
p1779
(lp1780
F15.6
aF15.8
asS'Joseph James I??m Out Imperial Stout'
p1781
(lp1782
F14.4
aF14.4
asS'Straight To Ale Verns Wheat Wine'
p1783
(lp1784
F14.4
aF14.5
asS'NOLA Lowerline'
p1785
(lp1786
F16.0
aF16.3
asS'Vinos Rock Hopera Imperial IPA'
p1787
(lp1788
F14.4
aF14.4
asS'Straight To Ale Laika Russian Imperial Stout'
p1789
(lp1790
F15.2
aF15.2
asS'Holy Mountain Misre au Borinage'
p1791
(lp1792
F16.0
aF16.4
asS'Big Sky Ivan the Terrible Imperial Stout - Bourbon Barrel'
p1793
(lp1794
F16.0
aF16.2
asS'Yazoo Embrace The Funk Series: Citra Luxe'
p1795
(lp1796
F15.2
aF15.6
asS'Blind Tiger Java Porter'
p1797
(lp1798
F14.4
aF14.7
asS'Creature Comforts Tropiclia'
p1799
(lp1800
F16.0
aF16.1
asS'Epic Smoked & Oaked Belgian-Style Ale'
p1801
(lp1802
F14.8
aF14.9
asS'Great Basin Tectonic Event IPA'
p1803
(lp1804
F14.4
aF14.9
asS'Evil Twin Even More Jesus Port'
p1805
(lp1806
F16.0
aF16.1
asS'Lakewood Bourbon Barrel Temptress (BBT)'
p1807
(lp1808
F15.6
aF16.0
asS'Grand Teton Brewers Series No. 2 - Brett Saison'
p1809
(lp1810
F15.6
aF16.1
asS'La Cumbre Elevated IPA'
p1811
(lp1812
F16.0
aF16.3
asS'SPB Sinister Minister'
p1813
(lp1814
F14.4
aF14.9
asS'Maui Brewing Imperial CoCoNut PorTeR'
p1815
(lp1816
F15.2
aF15.5
asS'Ottos Bourbon-Barrel Aged Jolly Roger Imperial Stout'
p1817
(lp1818
F16.8
aF16.9
asS'Hill Farmstead Double Galaxy'
p1819
(lp1820
F16.4
aF16.9
asS'Nebraska Inception Series Runnin?? with the Devil'
p1821
(lp1822
F15.2
aF15.3
asS'Kona Black Sand Porter'
p1823
(lp1824
F14.0
aF14.2
asS'Tree House Haze'
p1825
(lp1826
F16.4
aF16.6
asS'Block 15 Turbulent Consequence: P??che'
p1827
(lp1828
F16.4
aF16.8
asS'Founders Imperial Stout'
p1829
(lp1830
F16.4
aF16.5
asS'Abita Macchiato Espresso Milk Stout'
p1831
(lp1832
F14.4
aF14.7
asS'Grassroots Legitimacy'
p1833
(lp1834
F16.4
aF16.6
asS'Schramms Red Agnes'
p1835
(lp1836
F17.6
aF18.1
asS'Evil Twin Double Barrel Jesus'
p1837
(lp1838
F17.2
aF17.1
asS'Maine Beer MO'
p1839
(lp1840
F15.6
aF16.0
asS'Joseph James Baby J German Chocolate Cake Stout'
p1841
(lp1842
F15.2
aF15.1
asS'De Garde Imperial Purple Raz Bu'
p1843
(lp1844
F16.8
aF16.7
asS'Perennial Abraxas'
p1845
(lp1846
F16.4
aF16.5
asS'WeldWerks Coffee Maple Achromatic'
p1847
(lp1848
F17.2
aF17.3
asS'Trillium Vicinity'
p1849
(lp1850
F16.4
aF16.8
asS'Crooked Letter Mystery Romp'
p1851
(lp1852
F15.2
aF15.7
asS'Fremont Dark Star - Bourbon Barrel Coffee Edition'
p1853
(lp1854
F16.4
aF16.5
asS'Cycle Wednesday - 2016'
p1855
(lp1856
F16.4
aF16.5
asS'Kane Sunday Brunch'
p1857
(lp1858
F16.0
aF16.3
asS'Sweetwater Dank Tank Some Strange'
p1859
(lp1860
F15.6
aF15.7
asS'Morgantown Coal City Stout'
p1861
(lp1862
F14.0
aF14.1
asS'Superstition Framboesa Atando'
p1863
(lp1864
F17.6
aF17.8
asS'COAST Blackbeerd Imperial Stout - Jack Daniels Barrel'
p1865
(lp1866
F16.0
aF16.0
asS'Newport Storm Cyclone Series Zach'
p1867
(lp1868
F14.4
aF15.2
asS'Black Tooth Indian Paintbrush Ale'
p1869
(lp1870
F13.6
aF13.7
asS'Central Waters Ardea Insignis Imperial Stout'
p1871
(lp1872
F18.4
aF18.5
asS'Laughing Sun Cosmic Owl Belgian Pale Ale'
p1873
(lp1874
F13.2
aF13.8
asS'Four Peaks Double Knot'
p1875
(lp1876
F16.0
aF16.6
asS'Iron Hill Oak Aged Quad'
p1877
(lp1878
F15.6
aF15.9
asS'Side Project Abricot du Fermier'
p1879
(lp1880
F16.4
aF16.7
asS'Free State C4 Imperial Black IPA'
p1881
(lp1882
F15.2
aF15.6
asS'Hardywood Apple Brandy Barrel GBS (Gingerbread Stout)'
p1883
(lp1884
F16.0
aF16.2
asS'Right Proper Kodachrome Dream(ing)'
p1885
(lp1886
F15.2
aF14.9
asS'La Cumbre Malpais Stout'
p1887
(lp1888
F15.6
aF15.5
asS'Proclamation Tendril'
p1889
(lp1890
F14.4
aF14.8
asS'West Sixth Snakes In A Barrel'
p1891
(lp1892
F16.0
aF16.2
asS'Westbrook 4th Anniversary - Bourbon Barrel Aged'
p1893
(lp1894
F16.8
aF17.0
asS'Crow Peak Eleventh Hour IPA'
p1895
(lp1896
F12.4
aF12.7
asS'Cycle &+'
p1897
(lp1898
F16.8
aF16.7
asS'Flying Fish Exit 16 WE Wild Rice Double IPA'
p1899
(lp1900
F15.2
aF15.4
asS'Hill Farmstead Everett'
p1901
(lp1902
F16.4
aF16.7
asS'Montana Brewing Custers Last Stout'
p1903
(lp1904
F14.4
aF14.7
asS'Kane Silent Nights'
p1905
(lp1906
F15.2
aF15.5
asS'Half Acre Beer Hates Astronauts'
p1907
(lp1908
F16.0
aF16.6
asS'Madhouse Carpe Diem'
p1909
(lp1910
F16.0
aF16.1
asS'Deschutes The Abyss'
p1911
(lp1912
F16.8
aF17.0
asS'Hill Farmstead Flora - Plum'
p1913
(lp1914
F16.4
aF16.7
asS'Real Ale The Kraken'
p1915
(lp1916
F15.6
aF15.7
asS'Kane A Night To End All Dawns - Coconut'
p1917
(lp1918
F16.8
aF17.2
asS'Proclamation zzzlumber'
p1919
(lp1920
F14.8
aF15.1
asS'Trillium Summer Street IPA - Double Dry Hopped'
p1921
(lp1922
F16.4
aF16.6
asS'West Sixth IPA'
p1923
(lp1924
F14.4
aF14.5
asS'Stillwater Gose Gone Wild'
p1925
(lp1926
F16.0
aF16.1
asS'Tenaya Creek Tandem Double India Pale Ale'
p1927
(lp1928
F14.0
aF13.9
asS'Old Schoolhouse Imperial Stout'
p1929
(lp1930
F15.2
aF15.5
asS'Bells Black Note Stout'
p1931
(lp1932
F17.2
aF17.5
asS'Straight To Ale He Aint Heffe'
p1933
(lp1934
F14.4
aF14.2
asS'Warped Wing Baltic Argonaut'
p1935
(lp1936
F16.8
aF17.3
asS'Crow Peak Easy Livin Summer Ale'
p1937
(lp1938
F12.4
aF12.6
asS'Melvin Shaolin Brew IPA'
p1939
(lp1940
F16.4
aF16.4
asS'Firehouse Buffalo Bitter'
p1941
(lp1942
F12.4
aF12.4
asS'Stillwater G13'
p1943
(lp1944
F15.6
aF15.6
asS'Westbrook Mexican Cake Imperial Stout - Coffee'
p1945
(lp1946
F16.0
aF16.4
asS'Firehouse Brewers Golden'
p1947
(lp1948
F9.2
aF9.0
asS'Anchorage / Jolly Pumpkin Calabaza Boreal'
p1949
(lp1950
F15.2
aF15.6
asS'Bells Bourbon Barrel-Aged Expedition Stout'
p1951
(lp1952
F17.2
aF17.4
asS'Tenaya Creek Hop Ride IPA'
p1953
(lp1954
F14.0
aF14.3
asS'Kenco Farms Blue Mead'
p1955
(lp1956
F14.0
aF14.1
asS'Allagash Coolship Red'
p1957
(lp1958
F15.6
aF16.0
asS'Maui Brewing Heaven & Hell Barleywine'
p1959
(lp1960
F14.8
aF15.0
asS'Saint Arnold Bishops Barrel #8'
p1961
(lp1962
F16.0
aF16.7
asS'Maui Brewing Cascadian Dark Belgian Rye IPA'
p1963
(lp1964
F14.8
aF15.3
asS'Grand Teton Trout Hop Black IPA'
p1965
(lp1966
F14.8
aF14.7
asS'Saint Arnold Divine Reserve #15'
p1967
(lp1968
F15.6
aF15.7
asS'Trinity Russian Imperial Stout'
p1969
(lp1970
F13.6
aF13.5
asS'Uinta Crooked Line Cockeyed Cooper'
p1971
(lp1972
F14.8
aF15.2
asS'Carton Shipwreck Porter'
p1973
(lp1974
F15.6
aF16.1
asS'Anchorage Galaxy White IPA'
p1975
(lp1976
F15.2
aF15.6
asS'Marble Bourbon Barrel-Aged Imperial Stout'
p1977
(lp1978
F15.6
aF15.5
asS'Barley Johns Rosies Ale'
p1979
(lp1980
F16.8
aF17.1
asS'Bells Two Hearted Ale'
p1981
(lp1982
F16.4
aF16.6
asS'Westbrook Mexican Cake Imperial Stout - Red Wine Barrel'
p1983
(lp1984
F16.8
aF17.2
asS'Reaver Beach The Kracken'
p1985
(lp1986
F16.4
aF16.9
asS'Fremont Brew 1000'
p1987
(lp1988
F16.8
aF16.9
asS'Lost Abbey Duck Duck Gooze'
p1989
(lp1990
F16.4
aF16.9
asS'Fargo Wind Swept Belgian Witbier'
p1991
(lp1992
F12.4
aF12.6
asS'Alaskan Pilot Series: Barley Wine Ale'
p1993
(lp1994
F15.2
aF15.6
asS'Toppling Goliath Hopsmack!'
p1995
(lp1996
F15.2
aF15.4
asS'Arizona Wilderness Picacho Pecan Pie Brown Ale'
p1997
(lp1998
F16.8
aF17.1
asS'Epic Imperial IPA'
p1999
(lp2000
F14.8
aF15.1
asS'Squatters Outer Darkness'
p2001
(lp2002
F15.6
aF15.9
asS'Three Floyds Ronaldo (2016 Dark Lord Variant)'
p2003
(lp2004
F16.4
aF16.3
asS'Chama River Imperial Red'
p2005
(lp2006
F15.2
aF15.6
asS'Parish Envie Pale Ale'
p2007
(lp2008
F14.4
aF14.5
asS'Westbrook 2nd Anniversary Capn Skoons Ballistic Stout - Bourbon Barrel'
p2009
(lp2010
F16.0
aF16.3
asS'Red Rock Paardebloem'
p2011
(lp2012
F15.6
aF15.8
asS'Wicked Weed Freak Of Nature Double IPA'
p2013
(lp2014
F15.6
aF15.9
asS'Crooked Stave Raspberry Origins'
p2015
(lp2016
F16.0
aF16.1
asS'Parish Grand Reserve'
p2017
(lp2018
F15.2
aF15.5
asS'Jackie O??s Bourbon Barrel Oil Of Aphrodite'
p2019
(lp2020
F16.0
aF16.2
asS'Uinta Crooked Line Oak Jacked Imperial Pumpkin'
p2021
(lp2022
F14.8
aF15.0
asS'Tallgrass Big Ricc'
p2023
(lp2024
F14.8
aF14.8
asS'Union Station Vanilla Bean Porter'
p2025
(lp2026
F15.2
aF15.5
asS'Goose Island Bourbon County Barleywine'
p2027
(lp2028
F16.4
aF16.8
asS'Brenner Witchcraft Imperial Stout'
p2029
(lp2030
F17.2
aF17.3
asS'Holy Mountain Midnight Still - Cherry Rye'
p2031
(lp2032
F16.0
aF16.2
asS'Kuhnhenn Bourbon Barrel French Toast Mead'
p2033
(lp2034
F16.8
aF17.0
asS'Great Lakes Blackout Stout - Barrel-Aged'
p2035
(lp2036
F16.4
aF16.6
asS'Central Waters Black Gold'
p2037
(lp2038
F16.0
aF16.1
asS'Squatters Fifth Element'
p2039
(lp2040
F16.0
aF16.5
asS'Hair of the Dog Adam from the Wood'
p2041
(lp2042
F16.4
aF16.6
asS'Grand Teton Black Cauldron Imperial Stout'
p2043
(lp2044
F15.2
aF15.2
asS'Anchorage Love Buzz Saison'
p2045
(lp2046
F16.0
aF16.2
asS'North End Dawks Classic Porter'
p2047
(lp2048
F13.6
aF13.7
asS'Tyranena BGW Dirty Old Man'
p2049
(lp2050
F15.6
aF15.8
asS'Bullfrog Le Roar Grrrz Kriek'
p2051
(lp2052
F16.0
aF16.3
asS'Lucky Bucket Certified Evil 2010'
p2053
(lp2054
F13.6
aF13.7
asS'Maui Brewing Aloha Baktun'
p2055
(lp2056
F14.0
aF13.9
asS'Perennial Coffee Abraxas'
p2057
(lp2058
F16.0
aF16.2
asS'Arizona Wilderness DC Mountain Double IPA'
p2059
(lp2060
F16.8
aF16.8
asS'Grimm Lambo Door'
p2061
(lp2062
F16.0
aF16.1
asS'Bozeman Bozone HopZone IPA'
p2063
(lp2064
F14.4
aF14.3
asS'Dragoon Lazarus'
p2065
(lp2066
F18.0
aF18.3
asS'Nebraska Reserve Series Barrel Aged Fathead'
p2067
(lp2068
F14.8
aF15.0
asS'Revolution Deths Tar'
p2069
(lp2070
F15.6
aF15.9
asS'Fremont Abominable - Bourbon Barrel Coffee Cinnamon'
p2071
(lp2072
F16.8
aF16.9
asS'Creature Comforts Cosmik Debris'
p2073
(lp2074
F16.0
aF16.3
asS'AleWerks Secret Admirer'
p2075
(lp2076
F16.0
aF16.0
asS'Hoppin?? Frog BORIS The Crusher'
p2077
(lp2078
F16.4
aF16.6
asS'Nebraska Reserve Series Black Betty Russian Imperial Stout'
p2079
(lp2080
F15.6
aF15.8
asS'Dogfish Head 60 Minute IPA'
p2081
(lp2082
F15.2
aF15.5
asS'Founders Breakfast Stout'
p2083
(lp2084
F16.8
aF16.8
asS'Great Raft Reasonably Corrupt Schwarzbier'
p2085
(lp2086
F14.8
aF15.1
asS'DC Brau Penn Quarter Porter'
p2087
(lp2088
F14.8
aF14.6
asS'Diamond Bear Presidential IPA'
p2089
(lp2090
F12.8
aF12.7
asS'Holy Mountain Midnight Still - Coffee Vanilla'
p2091
(lp2092
F16.4
aF16.6
asS'North Coast Old Rasputin (Bourbon Barrel)'
p2093
(lp2094
F16.4
aF16.7
asS'Deschutes Black Butte XXVIII'
p2095
(lp2096
F16.0
aF16.5
asS'Barley Johns The Dark Knight (Returns)'
p2097
(lp2098
F16.4
aF16.8
asS'Montana Brewing Beartooth Espresso Porter'
p2099
(lp2100
F15.2
aF15.6
asS'Liquid Bread Oatmeal Stout'
p2101
(lp2102
F14.4
aF14.6
asS'Maui Brewing Lorenzini Double IPA (6th Sense)'
p2103
(lp2104
F14.0
aF14.2
asS'Anchorage A Deal With The Devil Barleywine'
p2105
(lp2106
F16.4
aF16.6
asS'Funky Buddha Maple Bacon Coffee Porter'
p2107
(lp2108
F16.4
aF16.5
asS'Santa Fe Imperial Java Stout'
p2109
(lp2110
F15.2
aF15.1
asS'Avondale Vanillaphant Porter'
p2111
(lp2112
F14.4
aF14.3
asS'Terrapin Cinnamon Rolld Wake-n-Bake'
p2113
(lp2114
F15.6
aF15.8
asS'Wicked Weed White Angel'
p2115
(lp2116
F16.0
aF16.0
asS'Midnight Sun Moscow'
p2117
(lp2118
F15.6
aF15.9
asS'Proclamation Derivative Galaxy Hopped Pale Ale'
p2119
(lp2120
F15.6
aF16.0
asS'Funky Buddha Morning Wood'
p2121
(lp2122
F17.2
aF17.4
asS'Three Floyds Behemoth'
p2123
(lp2124
F16.4
aF16.6
asS'Free State Old Backus Barleywine'
p2125
(lp2126
F16.0
aF16.1
asS'Laughing Sun Strawberry Wheat'
p2127
(lp2128
F12.4
aF12.6
asS'Boscos HopGod Ale'
p2129
(lp2130
F14.8
aF15.1
asS'Evil Twin Pappy??s Even More Jesus'
p2131
(lp2132
F17.2
aF17.4
asS'Toppling Goliath Light Speed Pale Ale'
p2133
(lp2134
F15.2
aF15.6
asS'Toppling Goliath pseudoSue - Citra Double Dry Hopped'
p2135
(lp2136
F16.0
aF16.4
asS'Iron Hill Sasquatch'
p2137
(lp2138
F14.8
aF15.0
asS'Big Island White Mountain Porter'
p2139
(lp2140
F14.0
aF14.1
asS'Tyranena BGW Whos Your Daddy? Bourbon Barrel-Aged Imperial Porter'
p2141
(lp2142
F16.0
aF16.5
asS'Sweetwater Dank Tank Johnny Hash'
p2143
(lp2144
F15.2
aF15.5
asS'Voodoo The K13'
p2145
(lp2146
F16.4
aF16.8
asS'Bluejacket / Intangible Ales Gene Turns 10k'
p2147
(lp2148
F14.8
aF15.2
asS'Cigar City Hunahpus Imperial Stout'
p2149
(lp2150
F17.2
aF17.3
asS'Iron Hill Imperial IPA'
p2151
(lp2152
F15.2
aF15.2
asS'Moonlight Meadery Kurt??s Apple Pie'
p2153
(lp2154
F15.6
aF15.8
asS'Beer Engineers Peanut Butter Porter'
p2155
(lp2156
F15.2
aF15.3
asS'Southampton Imperial Russian Stout'
p2157
(lp2158
F16.4
aF16.7
asS'Hair of the Dog Doggie Claws (2003-)'
p2159
(lp2160
F16.0
aF16.3
asS'Southern Tier Imperial Oat'
p2161
(lp2162
F16.0
aF16.2
asS'Allagash Nancy'
p2163
(lp2164
F15.6
aF16.0
asS'Abita Bourbon Street Baltic Porter'
p2165
(lp2166
F14.4
aF14.3
asS'Altitude 7200 Stout'
p2167
(lp2168
F13.6
aF13.3
asS'Allagash Golden Brett'
p2169
(lp2170
F15.6
aF15.9
asS'Medovina Sweet Melissa'
p2171
(lp2172
F16.0
aF16.5
asS'Braxton Dead Blow - Starter Coffee'
p2173
(lp2174
F15.2
aF15.8
asS'Bluejacket A Little Golden Gem'
p2175
(lp2176
F15.2
aF15.4
asS'Terrapin French Toasted W-n-B Coffee Oatmeal Imperial Stout'
p2177
(lp2178
F15.2
aF15.6
asS'Russian River Pliny the Elder'
p2179
(lp2180
F17.2
aF17.4
asS'Sweetwater Tavern Barrel Aged High Desert Imperial Stout'
p2181
(lp2182
F16.0
aF16.2
asS'Pizza Boy Sunny Side Up - Double Coffee'
p2183
(lp2184
F16.4
aF16.5
asS'Dogfish Head Squall IPA'
p2185
(lp2186
F15.2
aF15.6
asS'Pipeworks Citra Imperial IPA'
p2187
(lp2188
F16.0
aF16.3
asS'Prairie Fred??s Blend'
p2189
(lp2190
F16.4
aF16.7
asS'SPB Mississippi Fire Ant'
p2191
(lp2192
F13.6
aF13.6
asS'La Cumbre Acclimated IPA'
p2193
(lp2194
F17.2
aF17.6
asS'Bozeman Bozone Plum St. Porter'
p2195
(lp2196
F14.4
aF14.5
asS'Dogfish Head Bitches Brew'
p2197
(lp2198
F15.6
aF15.9
asS'New Glarus Thumbprint Series IIPA'
p2199
(lp2200
F15.6
aF15.9
asS'Hardywood Gingerbread Stout'
p2201
(lp2202
F15.6
aF15.6
asS'Allagash Coolship Cerise'
p2203
(lp2204
F15.6
aF16.0
asS'DC Brau Alpha Domina Mellis'
p2205
(lp2206
F15.2
aF15.1
asS'Allagash Tiarna'
p2207
(lp2208
F15.6
aF15.9
asS'Legend Imperial IPA'
p2209
(lp2210
F15.2
aF15.3
asS'Tallgrass Vanilla Bean Buffalo Sweat - Bourbon Barrel & Cinnamon'
p2211
(lp2212
F14.8
aF15.0
asS'Payette 12 Gauge Imperial Stout'
p2213
(lp2214
F15.6
aF16.0
asS'Jester King / Mikkeller Whiskey Barrel Rodeo'
p2215
(lp2216
F15.6
aF15.6
asS'Bells Hopslam'
p2217
(lp2218
F16.8
aF17.2
asS'Three Floyds BrooDoo'
p2219
(lp2220
F15.6
aF16.0
asS'Ramstein Eis Storm Eisbock'
p2221
(lp2222
F15.2
aF15.5
asS'Kane A Night to End All Dawns - Cacao'
p2223
(lp2224
F16.0
aF16.4
asS'Sockeye Double Dagger IIPA (Fresh Hop)'
p2225
(lp2226
F15.2
aF15.9
asS'Hoppin?? Frog Barrel Aged BORIS The Crusher'
p2227
(lp2228
F16.4
aF16.7
asS'Stillwater / Mikkeller Rauchstar'
p2229
(lp2230
F15.2
aF15.2
asS'Vinos Rainbow Wheat'
p2231
(lp2232
F12.8
aF12.9
asS'Hoppin?? Frog DORIS The Destroyer'
p2233
(lp2234
F16.4
aF16.4
asS'Country Boy 4th Anniversary Wild Red Ale'
p2235
(lp2236
F15.6
aF16.2
asS'Silver City Le Fat'
p2237
(lp2238
F16.4
aF16.4
asS'Epic Sour Brainless on Peaches'
p2239
(lp2240
F15.2
aF15.6
asS'603 Granite Stout'
p2241
(lp2242
F15.6
aF15.3
asS'Hill Farmstead Works of Love (Sante Adairius - 2013)'
p2243
(lp2244
F16.4
aF17.0
asS'Stillwater Barrel Aged Series - Stateside Saison'
p2245
(lp2246
F15.6
aF15.8
asS'Heavy Seas Uncharted Waters: Blackbeards Breakfast'
p2247
(lp2248
F15.6
aF15.7
asS'Captain Lawrence Rosso e Marrone'
p2249
(lp2250
F16.0
aF16.3
asS'(512) Cascabel Cream Stout'
p2251
(lp2252
F15.6
aF15.8
asS'Pointe of View Winery Dry Apple Wine'
p2253
(lp2254
F10.4
aF10.2
asS'Wicked Weed Bramble Barrel'
p2255
(lp2256
F16.0
aF16.0
asS'Blackstone Adam Bomb IPA'
p2257
(lp2258
F14.8
aF15.2
asS'Bad Beat Hoppy Times IPA'
p2259
(lp2260
F14.4
aF15.2
asS'OEC Albus'
p2261
(lp2262
F16.0
aF16.1
asS'Hardywood Bourbon GBS (Gingerbread Stout)'
p2263
(lp2264
F15.6
aF15.7
asS'Bullfrog Le Roar Grrrz Plum'
p2265
(lp2266
F16.4
aF16.6
asS'Sun Up White Russian Imperial Stout'
p2267
(lp2268
F16.8
aF17.1
asS'Side Project Saison du Fermier'
p2269
(lp2270
F16.0
aF16.2
asS'Epic Big Bad Baptista'
p2271
(lp2272
F17.6
aF17.9
asS'Trillium Headroom'
p2273
(lp2274
F16.8
aF17.0
asS'Trillium Mettle'
p2275
(lp2276
F16.4
aF16.5
asS'Kuhnhenn Fourth Dementia (4D) Old Ale - Bourbon Barrel'
p2277
(lp2278
F16.4
aF16.8
asS'Trillium Melcher Street IPA'
p2279
(lp2280
F16.4
aF16.5
asS'Stoneface Mozaccalypse'
p2281
(lp2282
F15.2
aF15.3
asS'New Belgium Love - Felix-Oscar Blend - Blackberry Whiskey Barrel'
p2283
(lp2284
F16.0
aF16.4
asS'Bitter Root Single Hop Ale - CTZ'
p2285
(lp2286
F14.4
aF14.5
asS'Cigar City Marshal Zhukovs Penultimate Push'
p2287
(lp2288
F17.2
aF17.5
asS'Stillwater Even Less Jesus (Remix)'
p2289
(lp2290
F15.2
aF15.4
asS'Crooked Stave Silly Cybies'
p2291
(lp2292
F16.0
aF16.2
asS'New Glarus Thumbprint Series Wild Sour Ale'
p2293
(lp2294
F15.6
aF16.0
asS'Prairie Funky Gold Mosaic'
p2295
(lp2296
F15.6
aF15.9
asS'Melvin IPA'
p2297
(lp2298
F15.2
aF15.6
asS'Firehouse Honey Rye Porter'
p2299
(lp2300
F14.0
aF14.1
asS'Superstition Aphrodisia Pyment - Cabernet'
p2301
(lp2302
F17.6
aF17.7
asS'Three Notchd Biggie Smores Imperial Stout'
p2303
(lp2304
F16.0
aF15.9
asS'Jester King Nocturn Chrysalis - Gin Barrel Aged'
p2305
(lp2306
F16.4
aF16.9
asS'Carton Epitome'
p2307
(lp2308
F15.2
aF15.4
asS'La Cumbre Cafe Con Leche'
p2309
(lp2310
F15.6
aF15.7
asS'Allagash Century Ale'
p2311
(lp2312
F15.6
aF16.0
asS'Country Boy Infinite Sadness'
p2313
(lp2314
F15.6
aF15.7
asS'Flathead Lake The Imperial IPA'
p2315
(lp2316
F15.2
aF15.3
asS'Free State Cloud Hopper Imperial IPA'
p2317
(lp2318
F15.6
aF15.5
asS'Southern Tier Oaked Pumking'
p2319
(lp2320
F16.0
aF16.4
asS'5 Seasons North Plan B IPA'
p2321
(lp2322
F15.6
aF15.8
asS'Alpine Beer Company Keene Idea'
p2323
(lp2324
F16.8
aF17.2
asS'DC Brau / Oskar Blues Smells Like Freedom'
p2325
(lp2326
F15.2
aF15.4
asS'Prairie Berry Raspberry Honeywine'
p2327
(lp2328
F14.0
aF14.1
asS'Tyranena BGW The Devil Made Me Do It'
p2329
(lp2330
F16.0
aF16.0
asS'The Front Mountain Man Scotch Ale'
p2331
(lp2332
F14.8
aF15.4
asS'Straight To Ale Monkeynaut IPA'
p2333
(lp2334
F14.4
aF14.5
asS'Samuel Adams Utopias'
p2335
(lp2336
F16.4
aF16.5
asS'Moody Brews Half Seas Over Imperial IPA'
p2337
(lp2338
F16.0
aF16.4
asS'Anchorage Whiteout Wit Bier'
p2339
(lp2340
F15.2
aF15.3
asS'Firehouse Wilderness Wheat'
p2341
(lp2342
F11.2
aF11.4
asS'Boundary Bay Imperial IPA'
p2343
(lp2344
F15.2
aF15.4
asS'Deciduous Lambent'
p2345
(lp2346
F15.6
aF15.8
asS'Kane Mexican Brunch'
p2347
(lp2348
F16.8
aF16.9
asS'Blind Tiger Top Gun IPA'
p2349
(lp2350
F14.4
aF14.8
asS'Deciduous Renascence'
p2351
(lp2352
F15.2
aF14.9
asS'Bridge Brew Works Black Diamond Lager'
p2353
(lp2354
F13.2
aF13.5
asS'Flying Dog Gonzo Imperial Porter'
p2355
(lp2356
F15.6
aF15.8
asS'Firestone Walker Parabola'
p2357
(lp2358
F16.8
aF17.1
asS'Lazy Magnolia Jefferson Stout'
p2359
(lp2360
F13.6
aF13.4
asS'Goose Island Bourbon County Stout - Regal Rye Barrel'
p2361
(lp2362
F16.4
aF16.5
asS'De Garde Cherry Raz Bu'
p2363
(lp2364
F16.0
aF16.5
asS'Library Rattlesnake Rye Pale Ale'
p2365
(lp2366
F13.6
aF13.3
asS'Allagash Tripel Reserve'
p2367
(lp2368
F15.6
aF15.8
asS'Ozark American Pale Ale'
p2369
(lp2370
F14.8
aF15.0
asS'Dark Horse Bourbon Barrel Plead the 5th Imperial Stout'
p2371
(lp2372
F16.8
aF16.9
asS'Tree House Alter Ego'
p2373
(lp2374
F16.8
aF17.0
asS'Red Brick 20th Anniversary'
p2375
(lp2376
F15.2
aF15.7
asS'Kane A Night to End All Dawns'
p2377
(lp2378
F15.6
aF15.5
asS'Pipeworks Crimson Snapper'
p2379
(lp2380
F16.0
aF16.3
asS'Tired Hands Pineal IPA'
p2381
(lp2382
F16.0
aF16.4
asS'Bluejacket Lost Weekend'
p2383
(lp2384
F14.8
aF15.1
asS'Creature Comforts See The Stars'
p2385
(lp2386
F16.8
aF16.8
asS'Honolulu Beerworks South Shore Stout'
p2387
(lp2388
F14.4
aF14.5
asS'Chafunkta Old 504 Porter'
p2389
(lp2390
F15.2
aF15.4
asS'Smuttynose Big Beer Series: Imperial Stout'
p2391
(lp2392
F16.0
aF16.0
asS'Evil Twin A??n M??s Caf?? Jes??s'
p2393
(lp2394
F16.0
aF16.3
asS'Snake River Le Serpent Cerise'
p2395
(lp2396
F15.2
aF15.6
asS'Bluejacket Wallflower'
p2397
(lp2398
F15.2
aF15.5
asS'Voodoo Grande Negro Voodoo Papi (Laird??s Apple Brandy)'
p2399
(lp2400
F16.4
aF16.9
asS'Smuttynose Baltic Porter'
p2401
(lp2402
F16.0
aF16.2
asS'Blue Pants Weedys Double IPA'
p2403
(lp2404
F14.8
aF14.6
asS'Superstition Grand Cru Berry'
p2405
(lp2406
F17.6
aF17.7
asS'Bridge Brew Works Hellbender IPA'
p2407
(lp2408
F14.4
aF14.4
asS'Bluejacket Mexican Radio (Whiskey Barrel Aged)'
p2409
(lp2410
F15.2
aF15.3
asS'Core Easy Livin IPA'
p2411
(lp2412
F14.0
aF13.9
asS'Bluejacket Further'
p2413
(lp2414
F15.6
aF15.4
asS'Prairie Prairie Noir'
p2415
(lp2416
F15.6
aF15.5
asS'Terrapin Substance Abuse Ale'
p2417
(lp2418
F16.4
aF16.7
asS'Bluejacket / Intangible Ales Travlrs 12k'
p2419
(lp2420
F14.8
aF14.9
asS'Other Half Mosaic'
p2421
(lp2422
F16.4
aF16.5
asS'Dangerous Man Peanut Butter Porter'
p2423
(lp2424
F16.4
aF16.4
asS'Dogfish Head Palo Santo Marron'
p2425
(lp2426
F15.6
aF15.9
asS'Tallgrass 16-Bit DPA'
p2427
(lp2428
F14.4
aF14.7
asS'La Cumbre El Negro RIS'
p2429
(lp2430
F16.0
aF16.0
asS'Fat Head??s Hop JuJu Imperial IPA'
p2431
(lp2432
F16.0
aF16.4
asS'Hardywood Foolery'
p2433
(lp2434
F16.4
aF16.7
asS'Straight To Ale Unobtanium'
p2435
(lp2436
F14.8
aF15.1
asS'Melvin Brosaic'
p2437
(lp2438
F16.0
aF15.8
asS'Great Raft All My Tomorrows'
p2439
(lp2440
F14.8
aF15.1
asS'Tree House Juice Machine (2015- )'
p2441
(lp2442
F16.8
aF17.2
asS'Big Timber IPA'
p2443
(lp2444
F13.2
aF13.6
asS'Maple River Winery Country Crabapple Wine'
p2445
(lp2446
F10.4
aF10.4
asS'Bluejacket P.X. Sherry Barrel-Aged High Society 2016'
p2447
(lp2448
F15.6
aF16.0
asS'Anchorage Darkest Hour Imperial Stout (2014-)'
p2449
(lp2450
F16.0
aF16.4
asS'Terminal BrewHouse Magnum PA'
p2451
(lp2452
F14.4
aF14.4
asS'Vinos Lazyboy Stout'
p2453
(lp2454
F13.2
aF13.0
asS'Big Sky Rye Pale Ale'
p2455
(lp2456
F14.4
aF14.7
asS'Burnt Hickory Charred Walls of the Damned'
p2457
(lp2458
F16.0
aF16.5
asS'Two Roads Igors Dream - Rye Whiskey Barrel Aged'
p2459
(lp2460
F15.2
aF15.4
asS'Straight To Ale Monkeys Uncle IIPA'
p2461
(lp2462
F14.8
aF15.3
asS'Wiseacre Adjective Animal'
p2463
(lp2464
F14.8
aF15.0
asS'Thirsty Dog Siberian Night Imperial Stout'
p2465
(lp2466
F16.4
aF16.6
asS'Barbarian Big Bad Funky Wolf'
p2467
(lp2468
F15.2
aF15.8
asS'Thunder Canyon Warhead Stout'
p2469
(lp2470
F16.0
aF16.2
asS'Lickinghole Creek Coconut Quadrupel Ale'
p2471
(lp2472
F16.4
aF16.4
asS'Lakewood French Quarter Temptress'
p2473
(lp2474
F16.0
aF16.0
asS'Forest & Main Paradisaea'
p2475
(lp2476
F16.0
aF16.2
asS'Trillium Fort Point Pale Ale - Double Dry Hopped'
p2477
(lp2478
F16.4
aF16.7
asS'Avery Uncle Jacobs Stout'
p2479
(lp2480
F16.4
aF16.6
asS'The Livery Bourbon Barrel Aged Wheat Trippelbock'
p2481
(lp2482
F16.4
aF16.8
asS'Dogfish Head Immort Ale'
p2483
(lp2484
F15.2
aF15.5
asS'Woodland Empire Cozy Up Big Ol Milk Stout'
p2485
(lp2486
F15.2
aF15.4
asS'Kauai Island Captain Cooks IPA'
p2487
(lp2488
F14.8
aF15.0
asS'Westbrook Mexican Cake Imperial Stout - Bourbon Coconut'
p2489
(lp2490
F16.8
aF17.1
asS'Dogfish Head World Wide Stout 2001/2003-Present (18%)'
p2491
(lp2492
F16.4
aF16.7
asS'Carton Dune Fruit'
p2493
(lp2494
F15.6
aF16.1
asS'1809 Berliner Style Weisse Zymatore - Gin & Pinot Noir Barrels'
p2495
(lp2496
F15.6
aF15.3
asS'Chama River Anastasia Wine Barrel Aged Russian Imperial Stout'
p2497
(lp2498
F15.6
aF16.0
asS'Bent Paddle Double Shot Double Black'
p2499
(lp2500
F16.0
aF16.3
asS'Blackberry Farm Barrel Series - Brett Saison'
p2501
(lp2502
F15.2
aF15.7
asS'Tree House In Perpetuity'
p2503
(lp2504
F16.4
aF16.7
asS'Bridge Brew Works Momma Rye IPA'
p2505
(lp2506
F13.6
aF13.8
asS'Town Hall Czar Jack Imperial Stout'
p2507
(lp2508
F16.0
aF16.4
asS'Tree House Double Shot'
p2509
(lp2510
F16.4
aF16.5
asS'Hoppin?? Frog Barrel Aged DORIS The Destroyer'
p2511
(lp2512
F16.4
aF16.6
asS'Nebraska Apricot Au Poivre Saison'
p2513
(lp2514
F15.2
aF15.4
asS'Anchorage Bitter Monk Belgian Style Double IPA'
p2515
(lp2516
F16.0
aF16.3
asS'Terrapin Tiramisu-Hoo'
p2517
(lp2518
F15.2
aF15.6
asS'Sick N Twisted Hop On Top IPA'
p2519
(lp2520
F13.2
aF12.6
asS'Leinenkugels Big Eddy Russian Imperial Stout'
p2521
(lp2522
F15.6
aF15.7
asS'Blind Tiger Russian Imperial Stout'
p2523
(lp2524
F14.8
aF15.5
asS'Bluejacket Mexican Radio'
p2525
(lp2526
F14.8
aF15.1
asS'Maui Brewing Hop Kine'
p2527
(lp2528
F14.0
aF14.1
asS'AleSmith Speedway Stout - Vanilla & Coconut'
p2529
(lp2530
F16.8
aF16.8
asS'Defiance Fuzzy Knuckles'
p2531
(lp2532
F14.8
aF14.7
asS'Toppling Goliath Mosaic Dry Hopped pseudoSue'
p2533
(lp2534
F16.0
aF16.3
asS'Vinos Holidaze'
p2535
(lp2536
F13.2
aF13.2
asS'Allagash Avanc'
p2537
(lp2538
F15.6
aF16.1
as.